
ChompChamps:     file format elf64-x86-64

Contents of section .interp:
 0318 2f6c6962 36342f6c 642d6c69 6e75782d  /lib64/ld-linux-
 0328 7838362d 36342e73 6f2e3200           x86-64.so.2.    
Contents of section .note.gnu.property:
 0338 04000000 10000000 05000000 474e5500  ............GNU.
 0348 028000c0 04000000 01000000 00000000  ................
Contents of section .note.gnu.build-id:
 0358 04000000 14000000 03000000 474e5500  ............GNU.
 0368 f627f906 395bef0c e730fc81 4ebe5bdd  .'..9[...0..N.[.
 0378 efdb4499                             ..D.            
Contents of section .note.ABI-tag:
 037c 04000000 10000000 01000000 474e5500  ............GNU.
 038c 00000000 03000000 02000000 00000000  ................
Contents of section .gnu.hash:
 03a0 03000000 2f000000 01000000 06000000  ..../...........
 03b0 00058100 00000c02 2f000000 30000000  ......../...0...
 03c0 31000000 d165ce6d 39f28b1c 32c4f712  1....e.m9...2...
 03d0 b3a2f712                             ....            
Contents of section .dynsym:
 03d8 00000000 00000000 00000000 00000000  ................
 03e8 00000000 00000000 fd000000 12000000  ................
 03f8 00000000 00000000 00000000 00000000  ................
 0408 7a000000 12000000 00000000 00000000  z...............
 0418 00000000 00000000 01000000 20000000  ............ ...
 0428 00000000 00000000 00000000 00000000  ................
 0438 25010000 12000000 00000000 00000000  %...............
 0448 00000000 00000000 6d010000 12000000  ........m.......
 0458 00000000 00000000 00000000 00000000  ................
 0468 ce000000 12000000 00000000 00000000  ................
 0478 00000000 00000000 7a010000 12000000  ........z.......
 0488 00000000 00000000 00000000 00000000  ................
 0498 b1000000 12000000 00000000 00000000  ................
 04a8 00000000 00000000 c9000000 12000000  ................
 04b8 00000000 00000000 00000000 00000000  ................
 04c8 17010000 12000000 00000000 00000000  ................
 04d8 00000000 00000000 9e000000 12000000  ................
 04e8 00000000 00000000 00000000 00000000  ................
 04f8 55000000 12000000 00000000 00000000  U...............
 0508 00000000 00000000 a7000000 12000000  ................
 0518 00000000 00000000 00000000 00000000  ................
 0528 4e010000 12000000 00000000 00000000  N...............
 0538 00000000 00000000 5e010000 12000000  ........^.......
 0548 00000000 00000000 00000000 00000000  ................
 0558 7f010000 12000000 00000000 00000000  ................
 0568 00000000 00000000 55010000 12000000  ........U.......
 0578 00000000 00000000 00000000 00000000  ................
 0588 46000000 12000000 00000000 00000000  F...............
 0598 00000000 00000000 bd000000 12000000  ................
 05a8 00000000 00000000 00000000 00000000  ................
 05b8 2e010000 12000000 00000000 00000000  ................
 05c8 00000000 00000000 e2000000 12000000  ................
 05d8 00000000 00000000 00000000 00000000  ................
 05e8 16010000 12000000 00000000 00000000  ................
 05f8 00000000 00000000 1d000000 20000000  ............ ...
 0608 00000000 00000000 00000000 00000000  ................
 0618 d5000000 12000000 00000000 00000000  ................
 0628 00000000 00000000 e9000000 12000000  ................
 0638 00000000 00000000 00000000 00000000  ................
 0648 a2000000 12000000 00000000 00000000  ................
 0658 00000000 00000000 73010000 12000000  ........s.......
 0668 00000000 00000000 00000000 00000000  ................
 0678 97000000 12000000 00000000 00000000  ................
 0688 00000000 00000000 71000000 12000000  ........q.......
 0698 00000000 00000000 00000000 00000000  ................
 06a8 64010000 12000000 00000000 00000000  d...............
 06b8 00000000 00000000 6a000000 12000000  ........j.......
 06c8 00000000 00000000 00000000 00000000  ................
 06d8 1e010000 12000000 00000000 00000000  ................
 06e8 00000000 00000000 4a000000 12000000  ........J.......
 06f8 00000000 00000000 00000000 00000000  ................
 0708 f8000000 12000000 00000000 00000000  ................
 0718 00000000 00000000 8b000000 12000000  ................
 0728 00000000 00000000 00000000 00000000  ................
 0738 6c010000 12000000 00000000 00000000  l...............
 0748 00000000 00000000 82000000 12000000  ................
 0758 00000000 00000000 00000000 00000000  ................
 0768 2c000000 20000000 00000000 00000000  ,... ...........
 0778 00000000 00000000 90000000 12000000  ................
 0788 00000000 00000000 00000000 00000000  ................
 0798 43010000 12000000 00000000 00000000  C...............
 07a8 00000000 00000000 c3000000 12000000  ................
 07b8 00000000 00000000 00000000 00000000  ................
 07c8 29010000 12000000 00000000 00000000  )...............
 07d8 00000000 00000000 5e000000 12000000  ........^.......
 07e8 00000000 00000000 00000000 00000000  ................
 07f8 b8000000 12000000 00000000 00000000  ................
 0808 00000000 00000000 2f010000 12000000  ......../.......
 0818 00000000 00000000 00000000 00000000  ................
 0828 c2000000 12000000 00000000 00000000  ................
 0838 00000000 00000000 34010000 22000000  ........4..."...
 0848 00000000 00000000 00000000 00000000  ................
 0858 0f010000 11001a00 a0610000 00000000  .........a......
 0868 08000000 00000000 4e000000 11001a00  ........N.......
 0878 60610000 00000000 04000000 00000000  `a..............
 0888 db000000 11001a00 80610000 00000000  .........a......
 0898 08000000 00000000                    ........        
Contents of section .dynstr:
 08a0 005f4954 4d5f6465 72656769 73746572  ._ITM_deregister
 08b0 544d436c 6f6e6554 61626c65 005f5f67  TMCloneTable.__g
 08c0 6d6f6e5f 73746172 745f5f00 5f49544d  mon_start__._ITM
 08d0 5f726567 69737465 72544d43 6c6f6e65  _registerTMClone
 08e0 5461626c 6500636f 73007369 6e006f70  Table.cos.sin.op
 08f0 74696e64 00736e70 72696e74 66007365  tind.snprintf.se
 0900 6d5f6465 7374726f 79007065 72726f72  m_destroy.perror
 0910 0073656d 5f696e69 74007374 726e6370  .sem_init.strncp
 0920 79007368 6d5f6f70 656e0065 78697400  y.shm_open.exit.
 0930 73657475 6964006d 756e6d61 70006469  setuid.munmap.di
 0940 66667469 6d650066 7472756e 63617465  fftime.ftruncate
 0950 00737973 74656d00 666f726b 00726561  .system.fork.rea
 0960 64007573 6c656570 00647570 32006765  d.usleep.dup2.ge
 0970 74706964 00756d61 736b006f 70746172  tpid.umask.optar
 0980 67006578 65637665 005f5f78 70675f62  g.execve.__xpg_b
 0990 6173656e 616d6500 61746f69 005f5f6c  asename.atoi.__l
 09a0 6962635f 73746172 745f6d61 696e0073  ibc_start_main.s
 09b0 74646572 72006670 72696e74 66006765  tderr.fprintf.ge
 09c0 746f7074 0073656d 5f776169 74007372  topt.sem_wait.sr
 09d0 616e6400 5f5f6378 615f6669 6e616c69  and.__cxa_finali
 09e0 7a650073 686d5f75 6e6c696e 6b006d65  ze.shm_unlink.me
 09f0 6d736574 0073656d 5f706f73 7400636c  mset.sem_post.cl
 0a00 6f736500 77616974 70696400 66777269  ose.waitpid.fwri
 0a10 74650073 656c6563 74006d6d 61700070  te.select.mmap.p
 0a20 69706500 6c69626d 2e736f2e 36006c69  ipe.libm.so.6.li
 0a30 62632e73 6f2e3600 474c4942 435f322e  bc.so.6.GLIBC_2.
 0a40 322e3500 474c4942 435f322e 333400    2.5.GLIBC_2.34. 
Contents of section .gnu.version:
 0a50 00000200 03000100 02000300 03000300  ................
 0a60 03000300 03000300 03000300 03000300  ................
 0a70 03000200 04000300 03000300 03000100  ................
 0a80 03000300 03000300 03000200 03000300  ................
 0a90 03000400 03000300 03000200 01000300  ................
 0aa0 02000300 03000200 03000300 03000300  ................
 0ab0 03000300 0300                        ......          
Contents of section .gnu.version_r:
 0ab8 01000100 84010000 10000000 20000000  ............ ...
 0ac8 751a6909 00000400 98010000 00000000  u.i.............
 0ad8 01000200 8e010000 10000000 00000000  ................
 0ae8 751a6909 00000300 98010000 10000000  u.i.............
 0af8 b4919606 00000200 a4010000 00000000  ................
Contents of section .rela.dyn:
 0b08 c05d0000 00000000 08000000 00000000  .]..............
 0b18 c0130000 00000000 c85d0000 00000000  .........]......
 0b28 08000000 00000000 80130000 00000000  ................
 0b38 58610000 00000000 08000000 00000000  Xa..............
 0b48 58610000 00000000 c05f0000 00000000  Xa......._......
 0b58 06000000 01000000 00000000 00000000  ................
 0b68 c85f0000 00000000 06000000 03000000  ._..............
 0b78 00000000 00000000 d05f0000 00000000  ........._......
 0b88 06000000 17000000 00000000 00000000  ................
 0b98 d85f0000 00000000 06000000 26000000  ._..........&...
 0ba8 00000000 00000000 e05f0000 00000000  ........._......
 0bb8 06000000 2f000000 00000000 00000000  ..../...........
 0bc8 60610000 00000000 05000000 31000000  `a..........1...
 0bd8 00000000 00000000 80610000 00000000  .........a......
 0be8 05000000 32000000 00000000 00000000  ....2...........
 0bf8 a0610000 00000000 05000000 30000000  .a..........0...
 0c08 00000000 00000000                    ........        
Contents of section .rela.plt:
 0c10 00600000 00000000 07000000 02000000  .`..............
 0c20 00000000 00000000 08600000 00000000  .........`......
 0c30 07000000 04000000 00000000 00000000  ................
 0c40 10600000 00000000 07000000 05000000  .`..............
 0c50 00000000 00000000 18600000 00000000  .........`......
 0c60 07000000 06000000 00000000 00000000  ................
 0c70 20600000 00000000 07000000 07000000   `..............
 0c80 00000000 00000000 28600000 00000000  ........(`......
 0c90 07000000 08000000 00000000 00000000  ................
 0ca0 30600000 00000000 07000000 09000000  0`..............
 0cb0 00000000 00000000 38600000 00000000  ........8`......
 0cc0 07000000 0a000000 00000000 00000000  ................
 0cd0 40600000 00000000 07000000 0b000000  @`..............
 0ce0 00000000 00000000 48600000 00000000  ........H`......
 0cf0 07000000 0c000000 00000000 00000000  ................
 0d00 50600000 00000000 07000000 0d000000  P`..............
 0d10 00000000 00000000 58600000 00000000  ........X`......
 0d20 07000000 0e000000 00000000 00000000  ................
 0d30 60600000 00000000 07000000 0f000000  ``..............
 0d40 00000000 00000000 68600000 00000000  ........h`......
 0d50 07000000 10000000 00000000 00000000  ................
 0d60 70600000 00000000 07000000 11000000  p`..............
 0d70 00000000 00000000 78600000 00000000  ........x`......
 0d80 07000000 12000000 00000000 00000000  ................
 0d90 80600000 00000000 07000000 13000000  .`..............
 0da0 00000000 00000000 88600000 00000000  .........`......
 0db0 07000000 14000000 00000000 00000000  ................
 0dc0 90600000 00000000 07000000 15000000  .`..............
 0dd0 00000000 00000000 98600000 00000000  .........`......
 0de0 07000000 16000000 00000000 00000000  ................
 0df0 a0600000 00000000 07000000 18000000  .`..............
 0e00 00000000 00000000 a8600000 00000000  .........`......
 0e10 07000000 19000000 00000000 00000000  ................
 0e20 b0600000 00000000 07000000 1a000000  .`..............
 0e30 00000000 00000000 b8600000 00000000  .........`......
 0e40 07000000 1b000000 00000000 00000000  ................
 0e50 c0600000 00000000 07000000 1c000000  .`..............
 0e60 00000000 00000000 c8600000 00000000  .........`......
 0e70 07000000 1d000000 00000000 00000000  ................
 0e80 d0600000 00000000 07000000 1e000000  .`..............
 0e90 00000000 00000000 d8600000 00000000  .........`......
 0ea0 07000000 1f000000 00000000 00000000  ................
 0eb0 e0600000 00000000 07000000 20000000  .`.......... ...
 0ec0 00000000 00000000 e8600000 00000000  .........`......
 0ed0 07000000 21000000 00000000 00000000  ....!...........
 0ee0 f0600000 00000000 07000000 22000000  .`.........."...
 0ef0 00000000 00000000 f8600000 00000000  .........`......
 0f00 07000000 23000000 00000000 00000000  ....#...........
 0f10 00610000 00000000 07000000 24000000  .a..........$...
 0f20 00000000 00000000 08610000 00000000  .........a......
 0f30 07000000 25000000 00000000 00000000  ....%...........
 0f40 10610000 00000000 07000000 27000000  .a..........'...
 0f50 00000000 00000000 18610000 00000000  .........a......
 0f60 07000000 28000000 00000000 00000000  ....(...........
 0f70 20610000 00000000 07000000 29000000   a..........)...
 0f80 00000000 00000000 28610000 00000000  ........(a......
 0f90 07000000 2a000000 00000000 00000000  ....*...........
 0fa0 30610000 00000000 07000000 2b000000  0a..........+...
 0fb0 00000000 00000000 38610000 00000000  ........8a......
 0fc0 07000000 2c000000 00000000 00000000  ....,...........
 0fd0 40610000 00000000 07000000 2d000000  @a..........-...
 0fe0 00000000 00000000 48610000 00000000  ........Ha......
 0ff0 07000000 2e000000 00000000 00000000  ................
Contents of section .init:
 1000 4883ec08 488b05c5 4f000048 85c07402  H...H...O..H..t.
 1010 ffd04883 c408c3                      ..H....         
Contents of section .plt:
 1020 ff35ca4f 0000ff25 cc4f0000 0f1f4000  .5.O...%.O....@.
 1030 ff25ca4f 00006800 000000e9 e0ffffff  .%.O..h.........
 1040 ff25c24f 00006801 000000e9 d0ffffff  .%.O..h.........
 1050 ff25ba4f 00006802 000000e9 c0ffffff  .%.O..h.........
 1060 ff25b24f 00006803 000000e9 b0ffffff  .%.O..h.........
 1070 ff25aa4f 00006804 000000e9 a0ffffff  .%.O..h.........
 1080 ff25a24f 00006805 000000e9 90ffffff  .%.O..h.........
 1090 ff259a4f 00006806 000000e9 80ffffff  .%.O..h.........
 10a0 ff25924f 00006807 000000e9 70ffffff  .%.O..h.....p...
 10b0 ff258a4f 00006808 000000e9 60ffffff  .%.O..h.....`...
 10c0 ff25824f 00006809 000000e9 50ffffff  .%.O..h.....P...
 10d0 ff257a4f 0000680a 000000e9 40ffffff  .%zO..h.....@...
 10e0 ff25724f 0000680b 000000e9 30ffffff  .%rO..h.....0...
 10f0 ff256a4f 0000680c 000000e9 20ffffff  .%jO..h..... ...
 1100 ff25624f 0000680d 000000e9 10ffffff  .%bO..h.........
 1110 ff255a4f 0000680e 000000e9 00ffffff  .%ZO..h.........
 1120 ff25524f 0000680f 000000e9 f0feffff  .%RO..h.........
 1130 ff254a4f 00006810 000000e9 e0feffff  .%JO..h.........
 1140 ff25424f 00006811 000000e9 d0feffff  .%BO..h.........
 1150 ff253a4f 00006812 000000e9 c0feffff  .%:O..h.........
 1160 ff25324f 00006813 000000e9 b0feffff  .%2O..h.........
 1170 ff252a4f 00006814 000000e9 a0feffff  .%*O..h.........
 1180 ff25224f 00006815 000000e9 90feffff  .%"O..h.........
 1190 ff251a4f 00006816 000000e9 80feffff  .%.O..h.........
 11a0 ff25124f 00006817 000000e9 70feffff  .%.O..h.....p...
 11b0 ff250a4f 00006818 000000e9 60feffff  .%.O..h.....`...
 11c0 ff25024f 00006819 000000e9 50feffff  .%.O..h.....P...
 11d0 ff25fa4e 0000681a 000000e9 40feffff  .%.N..h.....@...
 11e0 ff25f24e 0000681b 000000e9 30feffff  .%.N..h.....0...
 11f0 ff25ea4e 0000681c 000000e9 20feffff  .%.N..h..... ...
 1200 ff25e24e 0000681d 000000e9 10feffff  .%.N..h.........
 1210 ff25da4e 0000681e 000000e9 00feffff  .%.N..h.........
 1220 ff25d24e 0000681f 000000e9 f0fdffff  .%.N..h.........
 1230 ff25ca4e 00006820 000000e9 e0fdffff  .%.N..h ........
 1240 ff25c24e 00006821 000000e9 d0fdffff  .%.N..h!........
 1250 ff25ba4e 00006822 000000e9 c0fdffff  .%.N..h"........
 1260 ff25b24e 00006823 000000e9 b0fdffff  .%.N..h#........
 1270 ff25aa4e 00006824 000000e9 a0fdffff  .%.N..h$........
 1280 ff25a24e 00006825 000000e9 90fdffff  .%.N..h%........
 1290 ff259a4e 00006826 000000e9 80fdffff  .%.N..h&........
 12a0 ff25924e 00006827 000000e9 70fdffff  .%.N..h'....p...
 12b0 ff258a4e 00006828 000000e9 60fdffff  .%.N..h(....`...
 12c0 ff25824e 00006829 000000e9 50fdffff  .%.N..h)....P...
Contents of section .plt.got:
 12d0 ff250a4d 00006690                    .%.M..f.        
Contents of section .text:
 12e0 31ed4989 d15e4889 e24883e4 f0505445  1.I..^H..H...PTE
 12f0 31c031c9 488d3dce 000000ff 15bf4c00  1.1.H.=.......L.
 1300 00f4662e 0f1f8400 00000000 0f1f4000  ..f...........@.
 1310 488d3d49 4e000048 8d05424e 00004839  H.=IN..H..BN..H9
 1320 f8741548 8b059e4c 00004885 c07409ff  .t.H...L..H..t..
 1330 e00f1f80 00000000 c30f1f80 00000000  ................
 1340 488d3d19 4e000048 8d35124e 00004829  H.=.N..H.5.N..H)
 1350 fe4889f0 48c1ee3f 48c1f803 4801c648  .H..H..?H...H..H
 1360 d1fe7414 488b056d 4c000048 85c07408  ..t.H..mL..H..t.
 1370 ffe0660f 1f440000 c30f1f80 00000000  ..f..D..........
 1380 f30f1efa 803d1d4e 00000075 2b554883  .....=.N...u+UH.
 1390 3d4a4c00 00004889 e5740c48 8b3db64d  =JL...H..t.H.=.M
 13a0 0000e829 ffffffe8 64ffffff c605f54d  ...)....d......M
 13b0 0000015d c30f1f00 c30f1f80 00000000  ...]............
 13c0 f30f1efa e977ffff ff554889 e5415741  .....w...UH..AWA
 13d0 56415541 54534881 ece80000 0089bdfc  VAUATSH.........
 13e0 feffff48 89b5f0fe ffff4889 e04889c3  ...H......H..H..
 13f0 488d0511 2c000048 89c7e881 fcffff48  H...,..H.......H
 1400 8d558048 8b8df0fe ffff8b85 fcfeffff  .U.H............
 1410 4889ce89 c7e8bd20 0000488d 45804889  H...... ..H.E.H.
 1420 c7e86923 0000488d 45804889 c7e84224  ..i#..H.E.H...B$
 1430 0000488d 8540ffff ff4889c7 e8810b00  ..H..@...H......
 1440 00488945 c0488b45 c04889c7 e8281d00  .H.E.H.E.H...(..
 1450 00488d95 00ffffff 488d4580 4889d648  .H......H.E.H..H
 1460 89c7e8f2 0b000048 8945b848 8b55b848  .......H.E.H.U.H
 1470 8d458048 89d64889 c7e8931b 0000488b  .E.H..H.......H.
 1480 45b84889 c7e8b910 0000488b 45a04885  E.H.......H.E.H.
 1490 c0740f48 8d458048 89c7e89a 09000089  .t.H.E.H........
 14a0 45cc488b 45b88b40 0489c248 83ea0148  E.H.E..@...H...H
 14b0 8955b089 c24989d6 41bf0000 000089c2  .U...I..A.......
 14c0 4989d441 bd000000 0089c048 8d148500  I..A.......H....
 14d0 000000b8 10000000 4883e801 4801d0b9  ........H...H...
 14e0 10000000 ba000000 0048f7f1 486bc010  .........H..Hk..
 14f0 4829c448 89e04883 c00348c1 e80248c1  H).H..H...H...H.
 1500 e0024889 45a8488b 45b88b40 04488b55  ..H.E.H.E..@.H.U
 1510 a84889d6 89c7e8e3 0b000048 8b55a848  .H.........H.U.H
 1520 8b4db848 8d458048 89ce4889 c7e89f07  .M.H.E.H..H.....
 1530 00008b45 90488b55 a84889d6 89c7e893  ...E.H.U.H......
 1540 0c000048 8b4da848 8b55c048 8b75b848  ...H.M.H.U.H.u.H
 1550 8d458048 89c7e860 00000048 8b45a048  .E.H...`...H.E.H
 1560 85c0740a 8b45cc89 c7e83f05 0000488b  ..t..E....?...H.
 1570 45b84889 c7e88e05 0000488b 45c04889  E.H.......H.E.H.
 1580 c7e8601e 0000488d 8540ffff ff4889c7  ..`...H..@...H..
 1590 e8332500 00488d85 00ffffff 4889c7e8  .3%..H......H...
 15a0 24250000 b8000000 004889dc 488d65d8  $%.......H..H.e.
 15b0 5b415c41 5d415e41 5f5dc355 4889e548  [A\A]A^A_].UH..H
 15c0 83ec4048 897dd848 8975d048 8955c848  ..@H.}.H.u.H.U.H
 15d0 894dc0bf 00000000 e8b3fbff ff488945  .M...........H.E
 15e0 f8c745f4 00000000 488b45d8 488b4020  ..E.....H.E.H.@ 
 15f0 4885c074 13488b55 c8488b45 d84889d6  H..t.H.U.H.E.H..
 1600 4889c7e8 62040000 488b45d0 0fb68070  H...b...H.E....p
 1610 01000084 c075694c 8d4df04c 8b45c048  .....uiL.M.L.E.H
 1620 8b4dc848 8b55d048 8b75d848 8d45f448  .M.H.U.H.u.H.E.H
 1630 8d7df857 488d7dec 574889c7 e8420000  .}.WH.}.WH...B..
 1640 004883c4 1084c074 1f8b4dec 8b55f048  .H.....t..M..U.H
 1650 8d7df848 8b75c848 8b45d049 89f84889  .}.H.u.H.E.I..H.
 1660 c7e8d202 0000eb80 488b55c8 488b45d0  ........H.U.H.E.
 1670 4889d648 89c7e860 190000e9 68ffffff  H..H...`....h...
 1680 90c9c355 4889e548 83ec4048 897de848  ...UH..H..@H.}.H
 1690 8975e048 8955d848 894dd04c 8945c84c  .u.H.U.H.M.L.E.L
 16a0 894dc048 8b45e88b 0085c075 14c70509  .M.H.E.....u....
 16b0 4b000000 00000048 8b45e8c7 00010000  K......H.E......
 16c0 00488b45 e88b0083 f8017546 488b4d18  .H.E......uFH.M.
 16d0 488b55c8 488b75d8 488b45e0 4989c848  H.U.H.u.H.E.I..H
 16e0 8d0dfa4a 00004889 c7e8760c 00008905  ...J..H...v.....
 16f0 6c4b0000 8b05664b 000085c0 750ab800  lK....fK....u...
 1700 000000e9 2e020000 488b45e8 c7000200  ........H.E.....
 1710 00008b05 a84a0000 8d500189 159f4a00  .....J...P....J.
 1720 008945fc 8b05964a 0000488b 55d88b4a  ..E....J..H.U..J
 1730 04ba0000 0000f7f1 89d08905 804a0000  .............J..
 1740 488b4dd8 8b55fc48 89d048c1 e0024801  H.M..U.H..H...H.
 1750 d048c1e0 034801c8 4883c02c 0fb60083  .H...H..H..,....
 1760 f00184c0 74ac8b45 fc01c089 c0488d14  ....t..E.....H..
 1770 85000000 00488b45 c84801d0 8b008d50  .....H.E.H.....P
 1780 3f85c00f 48c2c1f8 06489848 8d14c500  ?...H....H.H....
 1790 00000048 8d05464a 0000488b 34028b45  ...H..FJ..H.4..E
 17a0 fc01c089 c0488d14 85000000 00488b45  .....H.......H.E
 17b0 c84801d0 8b0083e0 3fba0100 000089c1  .H......?.......
 17c0 48d3e248 89d04821 f04885c0 0f8440ff  H..H..H!.H....@.
 17d0 ffff8b45 fc01c089 c0488d14 85000000  ...E.....H......
 17e0 00488b45 c84801d0 8b008d50 3f85c00f  .H.E.H.....P?...
 17f0 48c2c1f8 06489848 8d14c500 00000048  H....H.H.......H
 1800 8d05da49 0000488b 34028b45 fc01c089  ...I..H.4..E....
 1810 c0488d14 85000000 00488b45 c84801d0  .H.......H.E.H..
 1820 8b0083e0 3fba0100 000089c1 48d3e248  ....?.......H..H
 1830 89d048f7 d04889c1 8b45fc01 c089c048  ..H..H...E.....H
 1840 8d148500 00000048 8b45c848 01d08b00  .......H.E.H....
 1850 8d503f85 c00f48c2 c1f80648 21f14898  .P?...H....H!.H.
 1860 488d14c5 00000000 488d0571 49000048  H.......H..qI..H
 1870 890c028b 05e74900 0083e801 8905de49  ......I........I
 1880 00008b05 d8490000 85c0750a 488b45e8  .....I....u.H.E.
 1890 c7000100 0000488b 4d10488b 55c08b75  ......H.M.H.U..u
 18a0 fc488b45 c84889c7 e8be0b00 0084c074  .H.E.H.........t
 18b0 07b80100 0000eb7e 488b45d0 4889c7e8  .......~H.E.H...
 18c0 c41a0000 488b4dd8 8b55fc48 89d048c1  ....H.M..U.H..H.
 18d0 e0024801 d048c1e0 034801c8 4883c02c  ..H..H...H..H..,
 18e0 c6000148 8b45d048 89c7e8d8 1a000048  ...H.E.H.......H
 18f0 8b45d848 89c7e82f 16000084 c07407b8  .E.H.../.....t..
 1900 00000000 eb304c8b 45c0488b 7dc8488b  .....0L.E.H.}.H.
 1910 4dd0488b 55d8488b 75e0488b 45e8ff75  M.H.U.H.u.H.E..u
 1920 18ff7510 4d89c149 89f84889 c7e851fd  ..u.M..I..H...Q.
 1930 ffff4883 c410c9c3 554889e5 4883ec30  ..H.....UH..H..0
 1940 48897de8 488975e0 8955dc89 4dd84c89  H.}.H.u..U..M.L.
 1950 45d0488d 4dfc8b55 d88b75dc 488b45e8  E.H.M..U..u.H.E.
 1960 4889c7e8 f0100000 84c00f84 a0000000  H...............
 1970 488b45e0 4889c7e8 0c1a0000 8b55fc8b  H.E.H........U..
 1980 4ddc488b 45e889ce 4889c7e8 99110000  M.H.E...H.......
 1990 488b4de8 8b55dc48 89d048c1 e0024801  H.M..U.H..H...H.
 19a0 d048c1e0 034801c8 4883c020 8b008d48  .H...H..H.. ...H
 19b0 01488b75 e88b55dc 4889d048 c1e00248  .H.u..U.H..H...H
 19c0 01d048c1 e0034801 f04883c0 20890848  ..H...H..H.. ..H
 19d0 8b45e848 89c7e816 12000048 8b45e848  .E.H.......H.E.H
 19e0 89c7e843 15000048 8b55e888 82700100  ...C...H.U...p..
 19f0 00488b45 e04889c7 e8ca1900 00bf0000  .H.E.H..........
 1a00 0000e889 f7ffff48 8b55d048 8902eb57  .......H.U.H...W
 1a10 488b45e0 4889c7e8 6c190000 488b4de8  H.E.H...l...H.M.
 1a20 8b55dc48 89d048c1 e0024801 d048c1e0  .U.H..H...H..H..
 1a30 034801c8 4883c01c 8b008d48 01488b75  .H..H......H.H.u
 1a40 e88b55dc 4889d048 c1e00248 01d048c1  ..U.H..H...H..H.
 1a50 e0034801 f04883c0 1c890848 8b45e048  ..H..H.....H.E.H
 1a60 89c7e860 19000090 c9c35548 89e54883  ...`......UH..H.
 1a70 ec104889 7df84889 75f0488b 45f04889  ..H.}.H.u.H.E.H.
 1a80 c7e88af6 ffff488b 45f04883 c0204889  ......H.E.H.. H.
 1a90 c7e8aaf5 ffff488b 45f88b40 0469c0e8  ......H.E..@.i..
 1aa0 03000089 c7e816f8 ffff90c9 c3554889  .............UH.
 1ab0 e54883ec 20897dec 488d4dfc 8b45ecba  .H.. .}.H.M..E..
 1ac0 00000000 4889ce89 c7e802f7 ffff83f8  ....H...........
 1ad0 ff751948 8d053425 00004889 c7e8fef6  .u.H..4%..H.....
 1ae0 ffffbf01 000000e8 34f7ffff 8b45fc89  ........4....E..
 1af0 c6488d05 1e250000 4889c7b8 00000000  .H...%..H.......
 1b00 e89bf5ff ff90c9c3 554889e5 4883ec30  ........UH..H..0
 1b10 48897dd8 c745fc00 000000e9 dd000000  H.}..E..........
 1b20 488d45e4 4889c7e8 54f7ffff 8945f483  H.E.H...T....E..
 1b30 7df4ff75 19488d05 ec240000 4889c7e8  }..u.H...$..H...
 1b40 9cf6ffff bf010000 00e8d2f6 ffffc745  ...............E
 1b50 f8000000 00e98f00 0000488b 4dd88b55  ..........H.M..U
 1b60 f84889d0 48c1e002 4801d048 c1e00348  .H..H...H..H...H
 1b70 01c84883 c0288b00 3945f475 688b55f8  ..H..(..9E.uh.U.
 1b80 4889d048 c1e00248 01d048c1 e003488b  H..H...H..H...H.
 1b90 55d84801 d04883c0 08488945 e8488b45  U.H..H...H.E.H.E
 1ba0 e88b7014 488b45e8 448b4018 488b45e8  ..p.H.E.D.@.H.E.
 1bb0 8b78108b 4de4488b 45e88b55 f84883ec  .x..M.H.E..U.H..
 1bc0 08564589 c14189f8 4889c648 8d055e24  .VE..A..H..H..^$
 1bd0 00004889 c7b80000 0000e8c1 f4ffff48  ..H............H
 1be0 83c410eb 148345f8 01488b45 d88b4004  ......E..H.E..@.
 1bf0 3945f80f 8261ffff ff8345fc 01488b45  9E...a....E..H.E
 1c00 d88b4004 3945fc0f 8213ffff ff9090c9  ..@.9E..........
 1c10 c3554889 e54883c4 8048897d 8889f189  .UH..H...H.}....
 1c20 d089ca66 89558466 8945800f b7558448  ...f.U.f.E...U.H
 1c30 8d45e089 d1488d15 2d240000 be140000  .E...H..-$......
 1c40 004889c7 b8000000 00e872f4 ffff0fb7  .H........r.....
 1c50 5580488d 45c089d1 488d150a 240000be  U.H.E...H...$...
 1c60 14000000 4889c7b8 00000000 e84ff4ff  ....H........O..
 1c70 ff488b45 88488945 a0488d45 e0488945  .H.E.H.E.H.E.H.E
 1c80 a8488d45 c0488945 b048c745 b8000000  .H.E.H.E.H.E....
 1c90 0048c745 98000000 00488d55 98488d4d  .H.E.....H.U.H.M
 1ca0 a0488b45 884889ce 4889c7e8 a0f4ffff  .H.E.H..H.......
 1cb0 83f8ff75 19488d05 b0230000 4889c7e8  ...u.H...#..H...
 1cc0 1cf5ffff bf010000 00e852f5 ffff90c9  ..........R.....
 1cd0 c3554889 e54883ec 3048897d e8488975  .UH..H..0H.}.H.u
 1ce0 e0488955 d8c745fc 00000000 e9340100  .H.U..E......4..
 1cf0 00e8aaf5 ffff8945 f8837df8 ff740b83  .......E..}..t..
 1d00 7df80074 1ee9f600 0000488d 05622300  }..t......H..b#.
 1d10 004889c7 e8c7f4ff ffbf0100 0000e8fd  .H..............
 1d20 f4ffffbf e8030000 e823f5ff ff83f8ff  .........#......
 1d30 7519488d 053f2300 004889c7 e89ff4ff  u.H..?#..H......
 1d40 ffbf0100 0000e8d5 f4ffff48 8b45e88b  ...........H.E..
 1d50 4810488b 55d88b45 fc89ce89 c7e80004  H.H.U..E........
 1d60 00008b45 fc01c089 c0488d14 85000000  ...E.....H......
 1d70 00488b45 d84801d0 8b0089c7 e86ff3ff  .H.E.H.......o..
 1d80 ff8b45fc 01c083c0 0189c048 8d148500  ..E........H....
 1d90 00000048 8b45d848 01d08b00 be010000  ...H.E.H........
 1da0 0089c7e8 e8f2ffff 8b45fc01 c083c001  .........E......
 1db0 89c0488d 14850000 0000488b 45d84801  ..H.......H.E.H.
 1dc0 d08b0089 c7e826f3 ffff488b 45e80fb7  ......&...H.E...
 1dd0 40020fb7 d0488b45 e80fb700 0fb7c848  @....H.E.......H
 1de0 8b45e848 8b40188b 75fc48c1 e6034801  .E.H.@..u.H...H.
 1df0 f0488b00 89ce4889 c7e813fe ffffeb21  .H....H........!
 1e00 488b4de0 8b55fc48 89d048c1 e0024801  H.M..U.H..H...H.
 1e10 d048c1e0 034801c8 488d5028 8b45f889  .H...H..H.P(.E..
 1e20 028345fc 01488b45 e88b4010 3945fc0f  ..E..H.E..@.9E..
 1e30 82bcfeff ff9090c9 c3554889 e54883ec  .........UH..H..
 1e40 2048897d e8e856f4 ffff8945 fc837dfc   H.}..V....E..}.
 1e50 ff740883 7dfc0074 1beb4048 8d051122  .t..}..t..@H..."
 1e60 00004889 c7e876f3 ffffbf01 000000e8  ..H...v.........
 1e70 acf3ffff 488b45e8 0fb74002 0fb7d048  ....H.E...@....H
 1e80 8b45e80f b7000fb7 c8488b45 e8488b40  .E.......H.E.H.@
 1e90 2089ce48 89c7e876 fdffff8b 45fcc9c3   ..H...v....E...
 1ea0 554889e5 4883ec10 48897df8 488b45f8  UH..H...H.}.H.E.
 1eb0 488d15c8 21000048 8910488b 45f8c740  H...!..H..H.E..@
 1ec0 08020000 00488b45 f8c7400c 00000000  .....H.E..@.....
 1ed0 488b45f8 48c74018 a8000000 488b45f8  H.E.H.@.....H.E.
 1ee0 48c74020 00000000 488b45f8 c7402803  H.@ ....H.E..@(.
 1ef0 00000048 8b45f8c7 402c0100 0000488b  ...H.E..@,....H.
 1f00 45f848c7 40300000 0000488b 45f84889  E.H.@0....H.E.H.
 1f10 c7e8a61a 0000488b 45f8488b 4038c9c3  ......H.E.H.@8..
 1f20 554889e5 4883ec10 89f989f0 488955f0  UH..H.......H.U.
 1f30 89ca6689 55fc6689 45f8488b 45f0488d  ..f.U.f.E.H.E.H.
 1f40 15452100 00488910 488b45f0 c7400800  .E!..H..H.E..@..
 1f50 00000048 8b45f0c7 400c0000 00000fb7  ...H.E..@.......
 1f60 55fc0fb7 45f8480f afc24883 c05d488d  U...E.H...H..]H.
 1f70 14850000 0000488b 45f04889 5018488b  ......H.E.H.P.H.
 1f80 45f048c7 40200000 0000488b 45f0c740  E.H.@ ....H.E..@
 1f90 28010000 00488b45 f0c7402c 01000000  (....H.E..@,....
 1fa0 488b45f0 48c74030 00000000 488b45f0  H.E.H.@0....H.E.
 1fb0 4889c7e8 041a0000 488b45f0 488b4038  H.......H.E.H.@8
 1fc0 c9c35548 89e54883 ec204889 7de8488b  ..UH..H.. H.}.H.
 1fd0 45e8488d 15bd2000 00488910 488b45e8  E.H... ..H..H.E.
 1fe0 c7400842 00000048 8b45e8c7 400cb601  .@.B...H.E..@...
 1ff0 0000488b 45e848c7 4018a800 0000488b  ..H.E.H.@.....H.
 2000 45e848c7 40200000 0000488b 45e8c740  E.H.@ ....H.E..@
 2010 28030000 00488b45 e8c7402c 01000000  (....H.E..@,....
 2020 488b45e8 48c74030 00000000 bf000000  H.E.H.@0........
 2030 00e83af1 ffff8945 fc488b45 e84889c7  ..:....E.H.E.H..
 2040 e8771900 008b45fc 89c7e821 f1ffff48  .w....E....!...H
 2050 8b45e848 8b4038c9 c3554889 e54883ec  .E.H.@8..UH..H..
 2060 1048897d f8488975 f0488b45 f0488d15  .H.}.H.u.H.E.H..
 2070 2d200000 48891048 8b45f0c7 40084200  - ..H..H.E..@.B.
 2080 0000488b 45f0c740 0ca40100 00488b45  ..H.E..@.....H.E
 2090 f80fb700 0fb7d048 8b45f80f b740020f  .......H.E...@..
 20a0 b7c0480f afc24883 c05d488d 14850000  ..H...H..]H.....
 20b0 0000488b 45f04889 5018488b 45f048c7  ..H.E.H.P.H.E.H.
 20c0 40200000 0000488b 45f0c740 28030000  @ ....H.E..@(...
 20d0 00488b45 f0c7402c 01000000 488b45f0  .H.E..@,....H.E.
 20e0 48c74030 00000000 488b45f0 4889c7e8  H.@0....H.E.H...
 20f0 c8180000 488b45f0 488b4038 c9c35548  ....H.E.H.@8..UH
 2100 89e54883 ec20897d ec488975 e0c745fc  ..H.. .}.H.u..E.
 2110 00000000 eb408b45 fc01c089 c0488d14  .....@.E.....H..
 2120 85000000 00488b45 e04801d0 4889c7e8  .....H.E.H..H...
 2130 ccefffff 83f8ff75 19488d05 6d1f0000  .......u.H..m...
 2140 4889c7e8 98f0ffff bf010000 00e8cef0  H...............
 2150 ffff8345 fc018b45 fc3b45ec 72b89090  ...E...E.;E.r...
 2160 c9c35548 89e54883 ec20897d ec8975e8  ..UH..H.. .}..u.
 2170 488955e0 c745fc00 000000eb 4d8b45ec  H.U..E......M.E.
 2180 3b45fc74 418b45fc 01c089c0 488d1485  ;E.tA.E.....H...
 2190 00000000 488b45e0 4801d08b 0089c7e8  ....H.E.H.......
 21a0 4cefffff 8b45fc01 c083c001 89c0488d  L....E........H.
 21b0 14850000 0000488b 45e04801 d08b0089  ......H.E.H.....
 21c0 c7e82aef ffff8345 fc018b45 fc3b45e8  ..*....E...E.;E.
 21d0 72ab9090 c9c35548 89e54883 ec20897d  r.....UH..H.. .}
 21e0 ec488975 e0c745fc 00000000 eb268b45  .H.u..E......&.E
 21f0 fc01c083 c00189c0 488d1485 00000000  ........H.......
 2200 488b45e0 4801d08b 0089c7e8 e0eeffff  H.E.H...........
 2210 8345fc01 8b45fc3b 45ec72d2 9090c9c3  .E...E.;E.r.....
 2220 554889e5 48897dd8 488975d0 488955c8  UH..H.}.H.u.H.U.
 2230 c745fc00 00000048 8b45c848 8945e8c7  .E.....H.E.H.E..
 2240 45f80000 0000eb13 488b45e8 8b55f848  E.......H.E..U.H
 2250 c704d000 00000083 45f80183 7df80f76  ........E...}..v
 2260 e7c745f4 00000000 e9e20000 00488b4d  ..E..........H.M
 2270 d88b55f4 4889d048 c1e00248 01d048c1  ..U.H..H...H..H.
 2280 e0034801 c84883c0 2c0fb600 83f00184  ..H..H..,.......
 2290 c00f84b4 0000008b 45f401c0 89c0488d  ........E.....H.
 22a0 14850000 0000488b 45d04801 d08b008d  ......H.E.H.....
 22b0 503f85c0 0f48c2c1 f80689c2 488b45c8  P?...H......H.E.
 22c0 4863d248 8b14d08b 45f401c0 89c0488d  Hc.H....E.....H.
 22d0 0c850000 0000488b 45d04801 c88b0083  ......H.E.H.....
 22e0 e03fbe01 00000089 c148d3e6 4889f048  .?.......H..H..H
 22f0 89c78b45 f401c089 c0488d0c 85000000  ...E.....H......
 2300 00488b45 d04801c8 8b008d48 3f85c00f  .H.E.H.....H?...
 2310 48c1c1f8 0689c648 89d14809 f9488b45  H......H..H..H.E
 2320 c84863d6 48890cd0 8b45f401 c089c048  .Hc.H....E.....H
 2330 8d148500 00000048 8b45d048 01d08b00  .......H.E.H....
 2340 8b55fc39 c20f4dc2 8945fc83 45f40148  .U.9..M..E..E..H
 2350 8b45d88b 40043945 f40f820e ffffff8b  .E..@.9E........
 2360 45fc5dc3 554889e5 534883ec 5848897d  E.].UH..SH..XH.}
 2370 c8488975 c0488955 b848894d b04c8945  .H.u.H.U.H.M.L.E
 2380 a8488b45 c88b400c 89c04885 c0781066  .H.E..@...H..x.f
 2390 0fefd2f2 480f2ad0 f20f1155 a0eb1e48  ....H.*....U...H
 23a0 89c248d1 ea83e001 4809c266 0fefc0f2  ..H.....H..f....
 23b0 480f2ac2 f20f58c0 f20f1145 a0488b45  H.*...X....E.H.E
 23c0 a8488b18 bf000000 00e8c2ed ffff4889  .H............H.
 23d0 de4889c7 e8d7ecff fff20f10 4da0f20f  .H..........M...
 23e0 5cc8f248 0f2cc148 8945d048 c745d800  \..H.,.H.E.H.E..
 23f0 00000048 8b55b048 8b4db848 8b45c048  ...H.U.H.M.H.E.H
 2400 89ce4889 c7e816fe ffff8945 ec488b45  ..H........E.H.E
 2410 d04885c0 7f07b800 000000eb 488b45ec  .H..........H.E.
 2420 8d780148 8d55d048 8b45b049 89d0b900  .x.H.U.H.E.I....
 2430 000000ba 00000000 4889c6e8 60edffff  ........H...`...
 2440 8945e883 7de8ff75 19488d05 621c0000  .E..}..u.H..b...
 2450 4889c7e8 88edffff bf010000 00e8beed  H...............
 2460 ffff8b45 e8488b5d f8c9c355 4889e548  ...E.H.]...UH..H
 2470 83ec3048 897de889 75e44889 55d84889  ..0H.}..u.H.U.H.
 2480 4dd08b45 e401c089 c0488d14 85000000  M..E.....H......
 2490 00488b45 e84801d0 8b00488d 4dffba01  .H.E.H....H.M...
 24a0 00000048 89ce89c7 e883ecff ff4883f8  ...H.........H..
 24b0 ff740748 85c0741b eb20488d 05f81b00  .t.H..t.. H.....
 24c0 004889c7 e817edff ffbf0100 0000e84d  .H.............M
 24d0 edffffb8 00000000 eb1b0fb6 45ff0fb6  ............E...
 24e0 d0488b45 d0891048 8b45d88b 55e48910  .H.E...H.E..U...
 24f0 b8010000 00c9c355 4889e548 83ec2089  .......UH..H.. .
 2500 7dec8975 e88b45e8 8845ff48 8d4dff8b  }..u..E..E.H.M..
 2510 45ecba01 00000048 89ce89c7 e82febff  E......H...../..
 2520 ff4883f8 ff751948 8d05901b 00004889  .H...u.H......H.
 2530 c7e8aaec ffffbf01 000000e8 e0ecffff  ................
 2540 90c9c355 4889e548 83ec5048 897db848  ...UH..H..PH.}.H
 2550 8b45b80f b7000fb7 c0660fef c0f20f2a  .E.......f.....*
 2560 c0f20f10 0d5f1b00 00f20f5e c1f20f11  ....._.....^....
 2570 45f0488b 45b80fb7 40020fb7 c0660fef  E.H.E...@....f..
 2580 c0f20f2a c0f20f10 0d3b1b00 00f20f5e  ...*.....;.....^
 2590 c1f20f11 45e8488b 45b80fb7 000fb7c0  ....E.H.E.......
 25a0 660fefc0 f20f2ac0 f20f100d 201b0000  f.....*..... ...
 25b0 f20f5ec1 f20f1145 e0488b45 b80fb740  ..^....E.H.E...@
 25c0 020fb7c0 660fefc0 f20f2ac0 f20f100d  ....f.....*.....
 25d0 fc1a0000 f20f5ec1 f20f1145 d8488b45  ......^....E.H.E
 25e0 b88b4004 83f8010f 85c20000 00c745c8  ..@...........E.
 25f0 00000000 f20f2c45 f089c648 8b4db88b  ......,E...H.M..
 2600 55c84889 d048c1e0 024801d0 48c1e003  U.H..H...H..H...
 2610 4801c848 83c02466 8930f20f 2c45e889  H..H..$f.0..,E..
 2620 c6488b4d b88b55c8 4889d048 c1e00248  .H.M..U.H..H...H
 2630 01d048c1 e0034801 c84883c0 26668930  ..H...H..H..&f.0
 2640 8b4dc848 8b75b88b 55c84889 d048c1e0  .M.H.u..U.H..H..
 2650 024801d0 48c1e003 4801f048 83c0240f  .H..H...H..H..$.
 2660 b7000fb7 d0488b45 b80fb700 0fb7c089  .....H.E........
 2670 d60faff0 488b7db8 8b55c848 89d048c1  ....H.}..U.H..H.
 2680 e0024801 d048c1e0 034801f8 4883c024  ..H..H...H..H..$
 2690 0fb7000f b7c08d14 06f7d948 8b45b848  ...........H.E.H
 26a0 63d24883 c25c894c 9004e978 010000c7  c.H..\.L...x....
 26b0 45fc0000 0000e95c 0100008b 45fc4885  E......\....E.H.
 26c0 c0780b66 0fefc0f2 480f2ac0 eb194889  .x.f....H.*...H.
 26d0 c248d1ea 83e00148 09c2660f efc0f248  .H.....H..f....H
 26e0 0f2ac2f2 0f58c0f2 0f100de9 190000f2  .*...X..........
 26f0 0f59c848 8b45b88b 400489c0 4885c078  .Y.H.E..@...H..x
 2700 0b660fef c0f2480f 2ac0eb19 4889c248  .f....H.*...H..H
 2710 d1ea83e0 014809c2 660fefc0 f2480f2a  .....H..f....H.*
 2720 c2f20f58 c0f20f5e c8f20f11 4dd0488b  ...X...^....M.H.
 2730 45d06648 0f6ec0e8 e4e9ffff 66480f7e  E.fH.n......fH.~
 2740 c066480f 6ec0f20f 5945e066 0f28c8f2  .fH.n...YE.f.(..
 2750 0f584df0 f20f1005 84190000 f20f58c1  .XM...........X.
 2760 f20f2cc0 668945ce 488b45d0 66480f6e  ..,.f.E.H.E.fH.n
 2770 c0e88aea ffff6648 0f7ec066 480f6ec0  ......fH.~.fH.n.
 2780 f20f5945 d8660f28 c8f20f58 4de8f20f  ..YE.f.(...XM...
 2790 10054a19 0000f20f 58c1f20f 2cc06689  ..J.....X...,.f.
 27a0 45cc488b 4db88b55 fc4889d0 48c1e002  E.H.M..U.H..H...
 27b0 4801d048 c1e00348 01c8488d 50240fb7  H..H...H..H.P$..
 27c0 45ce6689 02488b4d b88b55fc 4889d048  E.f..H.M..U.H..H
 27d0 c1e00248 01d048c1 e0034801 c8488d50  ...H..H...H..H.P
 27e0 260fb745 cc668902 8b4dfc0f b755cc48  &..E.f...M...U.H
 27f0 8b45b80f b7000fb7 c00fafd0 0fb745ce  .E............E.
 2800 01c2f7d9 488b45b8 4863d248 83c25c89  ....H.E.Hc.H..\.
 2810 4c900483 45fc0148 8b45b88b 40043945  L...E..H.E..@.9E
 2820 fc0f8294 feffffc9 c3554889 e548897d  .........UH..H.}
 2830 e88975e4 8b05463a 000085c0 7566488b  ..u...F:....ufH.
 2840 45e80fb7 000fb7c0 8945fc8b 45fcf7d8  E........E..E...
 2850 89052a3a 0000b801 0000002b 45fc8905  ..*:.......+E...
 2860 203a0000 c7051a3a 00000100 00008b45   :.....:.......E
 2870 fc83c001 8905123a 00008b45 fc89050d  .......:...E....
 2880 3a00008b 45fc83e8 01890505 3a0000c7  :...E.......:...
 2890 05ff3900 00ffffff ff8b45fc f7d08905  ..9.......E.....
 28a0 f8390000 8b45e448 8d148500 00000048  .9...E.H.......H
 28b0 8d05ca39 00008b04 025dc355 4889e548  ...9.....].UH..H
 28c0 897df889 f189d089 ca668955 f4668945  .}.......f.U.f.E
 28d0 f00fb755 f0488b45 f80fb700 0fb7c00f  ...U.H.E........
 28e0 afd00fb7 45f401d0 5dc35548 89e54889  ....E...].UH..H.
 28f0 7df88975 f4488955 e848894d e0488b45  }..u.H.U.H.M.H.E
 2900 f80fb700 0fb7c88b 45f4ba00 000000f7  ........E.......
 2910 f189d089 c2488b45 e8668910 488b45f8  .....H.E.f..H.E.
 2920 0fb7000f b7f08b45 f4ba0000 0000f7f6  .......E........
 2930 89c2488b 45e06689 10905dc3 554889e5  ..H.E.f...].UH..
 2940 48897de8 8975e489 55e0488b 4de88b55  H.}..u..U.H.M..U
 2950 e44889d0 48c1e002 4801d048 c1e00348  .H..H...H..H...H
 2960 01c84883 c0240fb7 00668945 fe488b4d  ..H..$...f.E.H.M
 2970 e88b55e4 4889d048 c1e00248 01d048c1  ..U.H..H...H..H.
 2980 e0034801 c84883c0 260fb700 668945fc  ..H..H..&...f.E.
 2990 66837dfc 00751c83 7de00774 0c837de0  f.}..u..}..t..}.
 29a0 00740683 7de00175 0ab80100 0000e982  .t..}..u........
 29b0 0000000f b755fc48 8b45e80f b740020f  .....U.H.E...@..
 29c0 b7c083e8 0139c275 19837de0 05740c83  .....9.u..}..t..
 29d0 7de00474 06837de0 037507b8 01000000  }..t..}..u......
 29e0 eb536683 7dfe0075 19837de0 07740c83  .Sf.}..u..}..t..
 29f0 7de00674 06837de0 057507b8 01000000  }..t..}..u......
 2a00 eb330fb7 55fe488b 45e80fb7 000fb7c0  .3..U.H.E.......
 2a10 83e80139 c2751983 7de00174 0c837de0  ...9.u..}..t..}.
 2a20 02740683 7de00375 07b80100 0000eb05  .t..}..u........
 2a30 b8000000 005dc355 4889e548 897df889  .....].UH..H.}..
 2a40 75f4488b 45f88b55 f44883c2 5c8b4490  u.H.E..U.H..\.D.
 2a50 0485c00f 9fc05dc3 554889e5 4883ec28  ......].UH..H..(
 2a60 48897de8 8975e489 55e04889 4dd8837d  H.}..u..U.H.M..}
 2a70 e007760a b8000000 00e9a900 00008b55  ..v............U
 2a80 e08b4de4 488b45e8 89ce4889 c7e8aafe  ..M.H.E...H.....
 2a90 ffff84c0 740ab800 000000e9 87000000  ....t...........
 2aa0 8b55e048 8b45e889 d64889c7 e878fdff  .U.H.E...H...x..
 2ab0 ff8945fc 488b4de8 8b55e448 89d048c1  ..E.H.M..U.H..H.
 2ac0 e0024801 d048c1e0 034801c8 4883c026  ..H..H...H..H..&
 2ad0 0fb7000f b7f0488b 4de88b55 e44889d0  ......H.M..U.H..
 2ae0 48c1e002 4801d048 c1e00348 01c84883  H...H..H...H..H.
 2af0 c0240fb7 000fb7c8 488b45e8 89f289ce  .$......H.E.....
 2b00 4889c7e8 b3fdffff 8b55fc01 c2488b45  H........U...H.E
 2b10 d8891048 8b45d88b 10488b45 e889d648  ...H.E...H.E...H
 2b20 89c7e810 ffffffc9 c3554889 e54883ec  .........UH..H..
 2b30 1048897d f88975f4 8955f08b 55f44889  .H.}..u..U..U.H.
 2b40 d048c1e0 024801d0 48c1e003 488d5010  .H...H..H...H.P.
 2b50 488b45f8 4801d048 8d48168b 55f44889  H.E.H..H.H..U.H.
 2b60 d048c1e0 024801d0 48c1e003 488d5010  .H...H..H...H.P.
 2b70 488b45f8 4801d048 8d50148b 75f0488b  H.E.H..H.P..u.H.
 2b80 45f84889 c7e860fd ffff488b 4df88b55  E.H...`...H.M..U
 2b90 f44889d0 48c1e002 4801d048 c1e00348  .H..H...H..H...H
 2ba0 01c84883 c0188b10 488b45f8 8b4df048  ..H.....H.E..M.H
 2bb0 83c15c8b 4488048d 0c02488b 75f88b55  ..\.D.....H.u..U
 2bc0 f44889d0 48c1e002 4801d048 c1e00348  .H..H...H..H...H
 2bd0 01f04883 c0188908 8b45f4f7 d889c148  ..H......E.....H
 2be0 8b45f88b 55f04883 c25c894c 900490c9  .E..U.H..\.L....
 2bf0 c3554889 e54883ec 2048897d e8c745fc  .UH..H.. H.}..E.
 2c00 00000000 e9b90000 00488b4d e88b55fc  .........H.M..U.
 2c10 4889d048 c1e00248 01d048c1 e0034801  H..H...H..H...H.
 2c20 c84883c0 2c0fb600 84c00f85 8d000000  .H..,...........
 2c30 488b4de8 8b55fc48 89d048c1 e0024801  H.M..U.H..H...H.
 2c40 d048c1e0 034801c8 4883c026 0fb7000f  .H...H..H..&....
 2c50 b7f0488b 4de88b55 fc4889d0 48c1e002  ..H.M..U.H..H...
 2c60 4801d048 c1e00348 01c84883 c0240fb7  H..H...H..H..$..
 2c70 000fb7c8 488b45e8 89f289ce 4889c7e8  ....H.E.....H...
 2c80 37fcffff 8945f88b 55f8488b 45e889d6  7....E..U.H.E...
 2c90 4889c7e8 3e000000 85c00f94 c1488b75  H...>........H.u
 2ca0 e88b55fc 4889d048 c1e00248 01d048c1  ..U.H..H...H..H.
 2cb0 e0034801 f04883c0 2c8808eb 01908345  ..H..H..,......E
 2cc0 fc01488b 45e88b40 043945fc 0f8237ff  ..H.E..@.9E...7.
 2cd0 ffff9090 c9c35548 89e54883 ec204889  ......UH..H.. H.
 2ce0 7de88975 e4488d4d fc488d55 fe8b75e4  }..u.H.M.H.U..u.
 2cf0 488b45e8 4889c7e8 eefbffff 0fb745fc  H.E.H.........E.
 2d00 6685c00f 84bd0000 00488b45 e8be0000  f........H.E....
 2d10 00004889 c7e80ffb ffff89c2 8b45e401  ..H..........E..
 2d20 c2488b45 e889d648 89c7e808 fdffff84  .H.E...H........
 2d30 c0740ab8 01000000 e9eb0100 000fb745  .t.............E
 2d40 fe6685c0 7434488b 45e8be07 00000048  .f..t4H.E......H
 2d50 89c7e8d2 faffff89 c28b45e4 01c2488b  ..........E...H.
 2d60 45e889d6 4889c7e8 cbfcffff 84c0740a  E...H.........t.
 2d70 b8010000 00e9ae01 00000fb7 45fe0fb7  ............E...
 2d80 d0488b45 e80fb700 0fb7c083 e80139c2  .H.E..........9.
 2d90 7d34488b 45e8be01 00000048 89c7e886  }4H.E......H....
 2da0 faffff89 c28b45e4 01c2488b 45e889d6  ......E...H.E...
 2db0 4889c7e8 7ffcffff 84c0740a b8010000  H.........t.....
 2dc0 00e96201 00000fb7 45fc0fb7 d0488b45  ..b.....E....H.E
 2dd0 e80fb740 020fb7c0 83e80139 c20f8dbd  ...@.......9....
 2de0 00000048 8b45e8be 04000000 4889c7e8  ...H.E......H...
 2df0 35faffff 89c28b45 e401c248 8b45e889  5......E...H.E..
 2e00 d64889c7 e82efcff ff84c074 0ab80100  .H.........t....
 2e10 0000e911 0100000f b745fe66 85c07434  .........E.f..t4
 2e20 488b45e8 be050000 004889c7 e8f8f9ff  H.E......H......
 2e30 ff89c28b 45e401c2 488b45e8 89d64889  ....E...H.E...H.
 2e40 c7e8f1fb ffff84c0 740ab801 000000e9  ........t.......
 2e50 d4000000 0fb745fe 0fb7d048 8b45e80f  ......E....H.E..
 2e60 b7000fb7 c083e801 39c27d34 488b45e8  ........9.}4H.E.
 2e70 be030000 004889c7 e8acf9ff ff89c28b  .....H..........
 2e80 45e401c2 488b45e8 89d64889 c7e8a5fb  E...H.E...H.....
 2e90 ffff84c0 740ab801 000000e9 88000000  ....t...........
 2ea0 0fb745fe 6685c074 31488b45 e8be0600  ..E.f..t1H.E....
 2eb0 00004889 c7e86ff9 ffff89c2 8b45e401  ..H...o......E..
 2ec0 c2488b45 e889d648 89c7e868 fbffff84  .H.E...H...h....
 2ed0 c07407b8 01000000 eb4e0fb7 45fe0fb7  .t.......N..E...
 2ee0 d0488b45 e80fb700 0fb7c083 e80139c2  .H.E..........9.
 2ef0 7d31488b 45e8be02 00000048 89c7e826  }1H.E......H...&
 2f00 f9ffff89 c28b45e4 01c2488b 45e889d6  ......E...H.E...
 2f10 4889c7e8 1ffbffff 84c07407 b8010000  H.........t.....
 2f20 00eb05b8 00000000 c9c35548 89e54889  ..........UH..H.
 2f30 7de8c745 fc000000 00eb3148 8b4de88b  }..E......1H.M..
 2f40 55fc4889 d048c1e0 024801d0 48c1e003  U.H..H...H..H...
 2f50 4801c848 83c02c0f b60083f0 0184c074  H..H..,........t
 2f60 07b80000 0000eb15 8345fc01 488b45e8  .........E..H.E.
 2f70 8b400439 45fc72c3 b8010000 005dc355  .@.9E.r......].U
 2f80 4889e548 83ec2048 897de8e8 d0e0ffff  H..H.. H.}......
 2f90 8945f8c7 45fc0000 0000eb2c 488b4de8  .E..E......,H.M.
 2fa0 8b55fc48 89d048c1 e0024801 d048c1e0  .U.H..H...H..H..
 2fb0 034801c8 4883c028 8b003945 f875058b  .H..H..(..9E.u..
 2fc0 45fceb15 8345fc01 488b45e8 8b400439  E....E..H.E..@.9
 2fd0 45fc72c8 b8ffffff ffc9c355 4889e548  E.r........UH..H
 2fe0 83ec1048 897df848 8975f048 8b45f048  ...H.}.H.u.H.E.H
 2ff0 89c7e891 03000048 8b45f8c6 80700100  .......H.E...p..
 3000 0001488b 45f04889 c7e8b903 000090c9  ..H.E.H.........
 3010 c3554889 e54883ec 2048897d e8488975  .UH..H.. H.}.H.u
 3020 e0488b45 e80fb710 488b45e0 66891048  .H.E....H.E.f..H
 3030 8b45e80f b7500248 8b45e066 89500248  .E...P.H.E.f.P.H
 3040 8b45e88b 5010488b 45e08950 04488b45  .E..P.H.E..P.H.E
 3050 e0c68070 01000000 488b45e0 4883c008  ...p....H.E.H...
 3060 ba680100 00be0000 00004889 c7e86ee0  .h........H...n.
 3070 ffffc745 fc000000 00eb5048 8b45e848  ...E......PH.E.H
 3080 8b40188b 55fc48c1 e2034801 d0488b00  .@..U.H...H..H..
 3090 4889c7e8 e8e0ffff 4889c18b 55fc4889  H.......H...U.H.
 30a0 d048c1e0 024801d0 48c1e003 488b55e0  .H...H..H...H.U.
 30b0 4801d048 83c008ba 10000000 4889ce48  H..H........H..H
 30c0 89c7e869 dfffff83 45fc0148 8b45e88b  ...i....E..H.E..
 30d0 40103945 fc72a448 8b45e88b 400889c7  @.9E.r.H.E..@...
 30e0 e85be0ff ffc745f8 00000000 eb73c745  .[....E......s.E
 30f0 f4000000 00eb57e8 b4e1ffff 89c14863  ......W.......Hc
 3100 c14869c0 398ee338 48c1e820 89c2d1fa  .Hi.9..8H.. ....
 3110 89c8c1f8 1f29c289 d0c1e003 01d029c1  .....)........).
 3120 89ca488b 45e00fb7 000fb7c0 0faf45f8  ..H.E.........E.
 3130 89c18b45 f48d3401 8d4a0148 8b45e048  ...E..4..J.H.E.H
 3140 63d64883 c25c894c 90048345 f401488b  c.H..\.L...E..H.
 3150 45e00fb7 000fb7c0 3945f47c 9a8345f8  E.......9E.|..E.
 3160 01488b45 e00fb740 020fb7c0 3945f80f  .H.E...@....9E..
 3170 8c79ffff ff9090c9 c3554889 e54883ec  .y.......UH..H..
 3180 1048897d f8488b45 f8ba0000 0000be01  .H.}.H.E........
 3190 00000048 89c7e825 e0ffff83 f8ff7519  ...H...%......u.
 31a0 488d0541 0f000048 89c7e831 e0ffffbf  H..A...H...1....
 31b0 01000000 e867e0ff ff488b45 f84883c0  .....g...H.E.H..
 31c0 20ba0000 0000be01 00000048 89c7e8ed   ..........H....
 31d0 dfffff83 f8ff7519 488d0509 0f000048  ......u.H......H
 31e0 89c7e8f9 dfffffbf 01000000 e82fe0ff  ............./..
 31f0 ff488b45 f84883c0 40ba0100 0000be01  .H.E.H..@.......
 3200 00000048 89c7e8b5 dfffff83 f8ff7519  ...H..........u.
 3210 488d05d1 0e000048 89c7e8c1 dfffffbf  H......H........
 3220 01000000 e8f7dfff ff488b45 f84883c0  .........H.E.H..
 3230 60ba0100 0000be01 00000048 89c7e87d  `..........H...}
 3240 dfffff83 f8ff7519 488d0599 0e000048  ......u.H......H
 3250 89c7e889 dfffffbf 01000000 e8bfdfff  ................
 3260 ff488b45 f84883e8 80ba0100 0000be01  .H.E.H..........
 3270 00000048 89c7e845 dfffff83 f8ff7519  ...H...E......u.
 3280 488d0561 0e000048 89c7e851 dfffffbf  H..a...H...Q....
 3290 01000000 e887dfff ff488b45 f8c780a0  .........H.E....
 32a0 00000000 00000090 c9c35548 89e54883  ..........UH..H.
 32b0 ec104889 7df8488b 45f84883 c0404889  ..H.}.H.E.H..@H.
 32c0 c7e87add ffff488b 45f84883 c0404889  ..z...H.E.H..@H.
 32d0 c7e83ade ffff488b 45f84883 e8804889  ..:...H.E.H...H.
 32e0 c7e85add ffff488b 45f88b80 a0000000  ..Z...H.E.......
 32f0 8d480148 8b55f889 8aa00000 0085c075  .H.H.U.........u
 3300 10488b45 f84883c0 604889c7 e82fddff  .H.E.H..`H.../..
 3310 ff488b45 f84883e8 804889c7 e8efddff  .H.E.H...H......
 3320 ff90c9c3 554889e5 4883ec10 48897df8  ....UH..H...H.}.
 3330 488b45f8 4883e880 4889c7e8 00ddffff  H.E.H...H.......
 3340 488b45f8 8b80a000 00008d50 ff488b45  H.E........P.H.E
 3350 f88990a0 00000048 8b45f88b 80a00000  .......H.E......
 3360 0085c075 10488b45 f84883c0 604889c7  ...u.H.E.H..`H..
 3370 e89bddff ff488b45 f84883e8 804889c7  .....H.E.H...H..
 3380 e88bddff ff90c9c3 554889e5 4883ec10  ........UH..H...
 3390 48897df8 488b45f8 4883c040 4889c7e8  H.}.H.E.H..@H...
 33a0 9cdcffff 488b45f8 4883c060 4889c7e8  ....H.E.H..`H...
 33b0 8cdcffff 488b45f8 4883c040 4889c7e8  ....H.E.H..@H...
 33c0 4cddffff 90c9c355 4889e548 83ec1048  L......UH..H...H
 33d0 897df848 8b45f848 83c06048 89c7e82d  .}.H.E.H..`H...-
 33e0 ddffff90 c9c35548 89e54883 ec104889  ......UH..H...H.
 33f0 7df8488b 45f84889 c7e892de ffff83f8  }.H.E.H.........
 3400 ff751948 8d05e70c 00004889 c7e8cedd  .u.H......H.....
 3410 ffffbf01 000000e8 04deffff 488b45f8  ............H.E.
 3420 4883c020 4889c7e8 64deffff 83f8ff75  H.. H...d......u
 3430 19488d05 b90c0000 4889c7e8 a0ddffff  .H......H.......
 3440 bf010000 00e8d6dd ffff488b 45f84883  ..........H.E.H.
 3450 c0404889 c7e836de ffff83f8 ff751948  .@H...6......u.H
 3460 8d058b0c 00004889 c7e872dd ffffbf01  ......H...r.....
 3470 000000e8 a8ddffff 488b45f8 4883c060  ........H.E.H..`
 3480 4889c7e8 08deffff 83f8ff75 19488d05  H..........u.H..
 3490 5d0c0000 4889c7e8 44ddffff bf010000  ]...H...D.......
 34a0 00e87add ffff488b 45f84883 e8804889  ..z...H.E.H...H.
 34b0 c7e8dadd ffff83f8 ff751948 8d052f0c  .........u.H../.
 34c0 00004889 c7e816dd ffffbf01 000000e8  ..H.............
 34d0 4cddffff 90c9c355 4889e548 83ec4089  L......UH..H..@.
 34e0 7ddc4889 75d04889 55c8488b 45c866c7  }.H.u.H.U.H.E.f.
 34f0 00000048 8b45c866 c7400200 00488b45  ...H.E.f.@...H.E
 3500 c8c74004 c8000000 488b45c8 c7400c0a  ..@.....H.E..@..
 3510 000000bf 00000000 e873dcff ff89c248  .........s.....H
 3520 8b45c889 5008488b 45c848c7 40200000  .E..P.H.E.H.@ ..
 3530 0000c645 ff00c745 f8000000 0048c745  ...E...E.....H.E
 3540 f0000000 00e98c01 00008b45 ec83e864  ...........E...d
 3550 83f8130f 874e0100 0089c048 8d148500  .....N.....H....
 3560 00000048 8d05460c 00008b04 02489848  ...H..F......H.H
 3570 8d153a0c 00004801 d0ffe048 8b05fe2b  ..:...H....H...+
 3580 00004889 c7e886dc ffff89c2 488b45c8  ..H.........H.E.
 3590 668910e9 3e010000 488b05e1 2b000048  f...>...H...+..H
 35a0 89c7e869 dcffff89 c2488b45 c8668950  ...i.....H.E.f.P
 35b0 02e92001 0000c645 ff01488b 05bf2b00  .. ....E..H...+.
 35c0 004889c7 e847dcff ff89c248 8b45c889  .H...G.....H.E..
 35d0 5004e9ff 00000048 8b05a22b 00004889  P......H...+..H.
 35e0 c7e82adc ffff89c2 488b45c8 89500ce9  ..*.....H.E..P..
 35f0 e2000000 488b0585 2b000048 89c7e80d  ....H...+..H....
 3600 dcffff89 c2488b45 c8895008 e9c50000  .....H.E..P.....
 3610 008b0549 2b000048 9848c1e0 03488d50  ...I+..H.H...H.P
 3620 f8488b45 d04801d0 488b1048 8b45c848  .H.E.H..H..H.E.H
 3630 895020e9 9e000000 8b05222b 00004898  .P ......."+..H.
 3640 48c1e003 488d50f8 488b45d0 4801d048  H...H.P.H.E.H..H
 3650 8945f0eb 048345f8 018b45f8 488d14c5  .E....E...E.H...
 3660 00000000 488b45f0 4801d048 8b004885  ....H.E.H..H..H.
 3670 c0741c8b 45f8488d 14c50000 0000488b  .t..E.H.......H.
 3680 45f04801 d0488b00 0fb6003c 2d75c68b  E.H..H.....<-u..
 3690 05cb2a00 0089c28b 45f801d0 83e80189  ..*.....E.......
 36a0 05bb2a00 00eb2f48 8b45d048 8b10488b  ..*.../H.E.H..H.
 36b0 05eb2a00 00488d0d 440a0000 4889ce48  ..*..H..D...H..H
 36c0 89c7b800 000000e8 94daffff bf010000  ................
 36d0 00e84adb ffff488b 4dd08b45 dc488d15  ..J...H.M..E.H..
 36e0 810a0000 4889ce89 c7e802db ffff8945  ....H..........E
 36f0 ec837dec ff0f854f feffff80 7dff0074  ..}....O....}..t
 3700 30488b45 c8488b40 204885c0 7523488b  0H.E.H.@ H..u#H.
 3710 058b2a00 004889c1 ba360000 00be0100  ..*..H...6......
 3720 0000488d 054f0a00 004889c7 e8ffdaff  ..H..O...H......
 3730 ff488b45 c80fb700 6685c074 0d488b45  .H.E....f..t.H.E
 3740 c80fb740 026685c0 752c488b 45c80fb7  ...@.f..u,H.E...
 3750 006685c0 7509488b 45c866c7 000a0048  .f..u.H.E.f....H
 3760 8b45c80f b7400266 85c0750a 488b45c8  .E...@.f..u.H.E.
 3770 66c74002 0a00488b 45c88b55 f8895010  f.@...H.E..U..P.
 3780 488b45c8 488b55f0 48895018 90c9c355  H.E.H.U.H.P....U
 3790 4889e548 83ec1048 897df848 8b45f88b  H..H...H.}.H.E..
 37a0 401085c0 752d488b 05f32900 004889c1  @...u-H...)..H..
 37b0 ba370000 00be0100 0000488d 053f0a00  .7........H..?..
 37c0 004889c7 e867daff ffbf0100 0000e84d  .H...g.........M
 37d0 daffff48 8b45f88b 401083f8 09762d48  ...H.E..@....v-H
 37e0 8b05ba29 0000ba09 00000048 8d0d460a  ...).......H..F.
 37f0 00004889 ce4889c7 b8000000 00e85ed9  ..H..H........^.
 3800 ffffbf01 000000e8 14daffff 488b45f8  ............H.E.
 3810 0fb70066 83f80976 0e488b45 f80fb740  ...f...v.H.E...@
 3820 026683f8 09774a48 8b45f80f b740020f  .f...wJH.E...@..
 3830 b7c8488b 45f80fb7 000fb7d0 488b055d  ..H.E.......H..]
 3840 29000041 89c94189 d0b90a00 0000ba0a  )..A..A.........
 3850 00000048 8d35160a 00004889 c7b80000  ...H.5....H.....
 3860 0000e8f9 d8ffffbf 01000000 e8afd9ff  ................
 3870 ff90c9c3 554889e5 4883ec20 48897de8  ....UH..H.. H.}.
 3880 488b45e8 0fb7000f b7c089c6 488d0512  H.E.........H...
 3890 0a000048 89c7b800 000000e8 00d8ffff  ...H............
 38a0 488b45e8 0fb74002 0fb7c089 c6488d05  H.E...@......H..
 38b0 fc090000 4889c7b8 00000000 e8dfd7ff  ....H...........
 38c0 ff488b45 e88b4004 89c6488d 05eb0900  .H.E..@...H.....
 38d0 004889c7 b8000000 00e8c2d7 ffff488b  .H............H.
 38e0 45e88b40 0c89c648 8d05d909 00004889  E..@...H......H.
 38f0 c7b80000 0000e8a5 d7ffff48 8b45e88b  ...........H.E..
 3900 400889c6 488d05c9 09000048 89c7b800  @...H......H....
 3910 000000e8 88d7ffff 488b45e8 488b4020  ........H.E.H.@ 
 3920 4885c074 0a488b45 e8488b40 20eb0748  H..t.H.E.H.@ ..H
 3930 8d05a809 00004889 c6488d05 a0090000  ......H..H......
 3940 4889c7b8 00000000 e853d7ff ff488b45  H........S...H.E
 3950 e88b4010 89c6488d 058d0900 004889c7  ..@...H......H..
 3960 b8000000 00e836d7 ffffc745 fc000000  ......6....E....
 3970 00eb3048 8b45e848 8b40188b 55fc48c1  ..0H.E.H.@..U.H.
 3980 e2034801 d0488b00 4889c648 8d056909  ..H..H..H..H..i.
 3990 00004889 c7b80000 0000e801 d7ffff83  ..H.............
 39a0 45fc0148 8b45e88b 40103945 fc72c4bf  E..H.E..@.9E.r..
 39b0 02000000 e8b7d8ff ff90c9c3 554889e5  ............UH..
 39c0 4883ec10 48897df8 488b45f8 8b500c48  H...H.}.H.E..P.H
 39d0 8b45f88b 4808488b 45f8488b 0089ce48  .E..H.H.E.H....H
 39e0 89c7e859 d8ffff48 8b55f889 4210488b  ...Y...H.U..B.H.
 39f0 45f88b40 1083f8ff 7519488d 05000900  E..@....u.H.....
 3a00 004889c7 e8d7d7ff ffbf0100 0000e80d  .H..............
 3a10 d8ffff48 8b45f88b 400883e0 4085c074  ...H.E..@...@..t
 3a20 3a488b45 f8488b40 184889c2 488b45f8  :H.E.H.@.H..H.E.
 3a30 8b401048 89d689c7 e893d6ff ff83f8ff  .@.H............
 3a40 7519488d 05c10800 004889c7 e88fd7ff  u.H......H......
 3a50 ffbf0100 0000e8c5 d7ffff48 8b45f84c  ...........H.E.L
 3a60 8b403048 8b45f88b 7810488b 45f88b48  .@0H.E..x.H.E..H
 3a70 2c488b45 f88b5028 488b45f8 488b7018  ,H.E..P(H.E.H.p.
 3a80 488b45f8 488b4020 4d89c141 89f84889  H.E.H.@ M..A..H.
 3a90 c7e8dad5 ffff488b 55f84889 4238488b  ......H.U.H.B8H.
 3aa0 45f8488b 40384883 f8ff7519 488d0561  E.H.@8H...u.H..a
 3ab0 08000048 89c7e825 d7ffffbf 01000000  ...H...%........
 3ac0 e85bd7ff ff90c9c3 554889e5 4883ec10  .[......UH..H...
 3ad0 48897df8 488b45f8 488b5018 488b45f8  H.}.H.E.H.P.H.E.
 3ae0 488b4038 4889d648 89c7e8c1 d6ffff83  H.@8H..H........
 3af0 f8ff7519 488d051e 08000048 89c7e8dd  ..u.H......H....
 3b00 d6ffffbf 01000000 e813d7ff ff488b45  .............H.E
 3b10 f88b4010 89c7e8d5 d5ffff83 f8ff7519  ..@...........u.
 3b20 488d05f9 07000048 89c7e8b1 d6ffffbf  H......H........
 3b30 01000000 e8e7d6ff ff488b45 f8488b00  .........H.E.H..
 3b40 4889c7e8 18d7ffff 83f8ff75 19488d05  H..........u.H..
 3b50 d2070000 4889c7e8 84d6ffff bf010000  ....H...........
 3b60 00e8bad6 ffff90c9 c3                 .........       
Contents of section .fini:
 3b6c 4883ec08 4883c408 c3                 H...H....       
Contents of section .rodata:
 4000 01000200 00000000 636c6561 72007761  ........clear.wa
 4010 69747069 64005669 65772065 78697465  itpid.View exite
 4020 64202825 64290a00 77616974 00000000  d (%d)..wait....
 4030 506c6179 65722025 73202825 75292065  Player %s (%u) e
 4040 78697465 64202825 64292077 69746820  xited (%d) with 
 4050 61207363 6f726520 6f662025 75202f20  a score of %u / 
 4060 2575202f 2025750a 00256400 65786563  %u / %u..%d.exec
 4070 76650066 6f726b00 73657475 6964002f  ve.fork.setuid./
 4080 67616d65 5f73796e 63002f67 616d655f  game_sync./game_
 4090 73746174 65002f67 616d655f 73796e63  state./game_sync
 40a0 002f6761 6d655f73 74617465 00706970  ./game_state.pip
 40b0 65007365 6c656374 00726561 64007772  e.select.read.wr
 40c0 69746500 00000000 00000000 00000040  ite............@
 40d0 00000000 00000840 182d4454 fb211940  .......@.-DT.!.@
 40e0 00000000 0000e03f 73656d5f 696e6974  .......?sem_init
 40f0 0073656d 5f646573 74726f79 00000000  .sem_destroy....
 4100 55736167 653a2025 73205b2d 77207769  Usage: %s [-w wi
 4110 6474685d 205b2d68 20686569 6768745d  dth] [-h height]
 4120 205b2d64 2064656c 61795d20 5b2d7320   [-d delay] [-s 
 4130 73656564 5d205b2d 76207669 65775d20  seed] [-v view] 
 4140 5b2d7420 74696d65 6f75745d 202d7020  [-t timeout] -p 
 4150 706c6179 65723120 706c6179 65723220  player1 player2 
 4160 2e2e2e0a 00773a68 3a643a70 3a763a73  .....w:h:d:p:v:s
 4170 3a743a00 00000000 496e666f 3a204465  :t:.....Info: De
 4180 6c617920 70617261 6d657465 72206967  lay parameter ig
 4190 6e6f7265 64207369 6e636520 74686572  nored since ther
 41a0 65206973 206e6f20 76696577 2e0a0000  e is no view....
 41b0 06f4ffff f7f4ffff f7f4ffff f7f4ffff  ................
 41c0 e8f3ffff f7f4ffff f7f4ffff f7f4ffff  ................
 41d0 f7f4ffff f7f4ffff f7f4ffff f7f4ffff  ................
 41e0 88f4ffff f7f4ffff f7f4ffff 44f4ffff  ............D...
 41f0 27f4ffff f7f4ffff 61f4ffff cbf3ffff  '.......a.......
 4200 4572726f 723a2041 74206c65 61737420  Error: At least 
 4210 6f6e6520 706c6179 6572206d 75737420  one player must 
 4220 62652073 70656369 66696564 20757369  be specified usi
 4230 6e67202d 702e0a00 4572726f 723a2041  ng -p...Error: A
 4240 74206d6f 73742025 6420706c 61796572  t most %d player
 4250 73206361 6e206265 20737065 63696669  s can be specifi
 4260 65642075 73696e67 202d702e 0a000000  ed using -p.....
 4270 4572726f 723a204d 696e696d 616c2062  Error: Minimal b
 4280 6f617264 2064696d 656e7369 6f6e733a  oard dimensions:
 4290 20256478 25642e20 47697665 6e202564   %dx%d. Given %d
 42a0 7825640a 00776964 74683a20 25640a00  x%d..width: %d..
 42b0 68656967 68743a20 25640a00 64656c61  height: %d..dela
 42c0 793a2025 750a0074 696d656f 75743a20  y: %u..timeout: 
 42d0 25750a00 73656564 3a202575 0a002d00  %u..seed: %u..-.
 42e0 76696577 3a202573 0a006e75 6d5f706c  view: %s..num_pl
 42f0 61796572 733a2025 750a0020 2025730a  ayers: %u..  %s.
 4300 0073686d 5f6f7065 6e006674 72756e63  .shm_open.ftrunc
 4310 61746500 6d6d6170 006d756e 6d617000  ate.mmap.munmap.
 4320 636c6f73 65007368 6d5f756e 6c696e6b  close.shm_unlink
 4330 00                                   .               
Contents of section .eh_frame_hdr:
 4334 011b033b 90010000 31000000 ecccffff  ...;....1.......
 4344 dc010000 9ccfffff 04020000 accfffff  ................
 4354 ac010000 95d0ffff 1c020000 87d2ffff  ................
 4364 48020000 4fd3ffff 68020000 04d6ffff  H...O...h.......
 4374 88020000 36d7ffff a8020000 79d7ffff  ....6.......y...
 4384 c8020000 d4d7ffff e8020000 ddd8ffff  ................
 4394 0c030000 9dd9ffff 2c030000 05dbffff  ........,.......
 43a4 4c030000 6cdbffff 6c030000 ecdbffff  L...l...l.......
 43b4 8c030000 8edcffff ac030000 25ddffff  ............%...
 43c4 cc030000 caddffff ec030000 2edeffff  ................
 43d4 0c040000 a2deffff 2c040000 ecdeffff  ........,.......
 43e4 4c040000 30e0ffff 6c040000 37e1ffff  L...0...l...7...
 43f4 90040000 c3e1ffff b0040000 0fe2ffff  ................
 4404 d4040000 f5e4ffff f4040000 87e5ffff  ................
 4414 14050000 b6e5ffff 34050000 08e6ffff  ........4.......
 4424 54050000 03e7ffff 74050000 24e7ffff  T.......t...$...
 4434 94050000 f5e7ffff b4050000 bde8ffff  ................
 4444 d4050000 a2e9ffff f4050000 f6ebffff  ................
 4454 14060000 4becffff 34060000 a7ecffff  ....K...4.......
 4464 54060000 ddecffff 74060000 45eeffff  T.......t...E...
 4474 94060000 76efffff b4060000 f0efffff  ....v...........
 4484 d4060000 54f0ffff f4060000 93f0ffff  ....T...........
 4494 14070000 b2f0ffff 34070000 a3f1ffff  ........4.......
 44a4 54070000 5bf4ffff 74070000 40f5ffff  T...[...t...@...
 44b4 94070000 88f6ffff b4070000 94f7ffff  ................
 44c4 d4070000                             ....            
Contents of section .eh_frame:
 44c8 14000000 00000000 017a5200 01781001  .........zR..x..
 44d8 1b0c0708 90010710 14000000 1c000000  ................
 44e8 f8cdffff 22000000 00000000 00000000  ...."...........
 44f8 14000000 00000000 017a5200 01781001  .........zR..x..
 4508 1b0c0708 90010000 24000000 1c000000  ........$.......
 4518 08cbffff b0020000 000e1046 0e184a0f  ...........F..J.
 4528 0b770880 003f1a3b 2a332422 00000000  .w...?.;*3$"....
 4538 14000000 44000000 90cdffff 08000000  ....D...........
 4548 00000000 00000000 28000000 5c000000  ........(...\...
 4558 71ceffff f2010000 00410e10 8602430d  q........A....C.
 4568 06508f03 8e048d05 8c068307 03dd010c  .P..............
 4578 07080000 1c000000 88000000 37d0ffff  ............7...
 4588 c8000000 00410e10 8602430d 0602c30c  .....A....C.....
 4598 07080000 1c000000 a8000000 dfd0ffff  ................
 45a8 b5020000 00410e10 8602430d 0603b002  .....A....C.....
 45b8 0c070800 1c000000 c8000000 74d3ffff  ............t...
 45c8 32010000 00410e10 8602430d 06032d01  2....A....C...-.
 45d8 0c070800 1c000000 e8000000 86d4ffff  ................
 45e8 43000000 00410e10 8602430d 067e0c07  C....A....C..~..
 45f8 08000000 1c000000 08010000 a9d4ffff  ................
 4608 5b000000 00410e10 8602430d 0602560c  [....A....C...V.
 4618 07080000 20000000 28010000 e4d4ffff  .... ...(.......
 4628 09010000 00410e10 8602430d 06030401  .....A....C.....
 4638 0c070800 00000000 1c000000 4c010000  ............L...
 4648 c9d5ffff c0000000 00410e10 8602430d  .........A....C.
 4658 0602bb0c 07080000 1c000000 6c010000  ............l...
 4668 69d6ffff 68010000 00410e10 8602430d  i...h....A....C.
 4678 06036301 0c070800 1c000000 8c010000  ..c.............
 4688 b1d7ffff 67000000 00410e10 8602430d  ....g....A....C.
 4698 0602620c 07080000 1c000000 ac010000  ..b.............
 46a8 f8d7ffff 80000000 00410e10 8602430d  .........A....C.
 46b8 06027b0c 07080000 1c000000 cc010000  ..{.............
 46c8 58d8ffff a2000000 00410e10 8602430d  X........A....C.
 46d8 06029d0c 07080000 1c000000 ec010000  ................
 46e8 dad8ffff 97000000 00410e10 8602430d  .........A....C.
 46f8 0602920c 07080000 1c000000 0c020000  ................
 4708 51d9ffff a5000000 00410e10 8602430d  Q........A....C.
 4718 0602a00c 07080000 1c000000 2c020000  ............,...
 4728 d6d9ffff 64000000 00410e10 8602430d  ....d....A....C.
 4738 06025f0c 07080000 1c000000 4c020000  .._.........L...
 4748 1adaffff 74000000 00410e10 8602430d  ....t....A....C.
 4758 06026f0c 07080000 1c000000 6c020000  ..o.........l...
 4768 6edaffff 4a000000 00410e10 8602430d  n...J....A....C.
 4778 0602450c 07080000 1c000000 8c020000  ..E.............
 4788 98daffff 44010000 00410e10 8602430d  ....D....A....C.
 4798 06033f01 0c070800 20000000 ac020000  ..?..... .......
 47a8 bcdbffff 07010000 00410e10 8602430d  .........A....C.
 47b8 06458303 02fd0c07 08000000 1c000000  .E..............
 47c8 d0020000 9fdcffff 8c000000 00410e10  .............A..
 47d8 8602430d 0602870c 07080000 20000000  ..C......... ...
 47e8 f0020000 0bddffff 4c000000 00410e10  ........L....A..
 47f8 8602430d 0602470c 07080000 00000000  ..C...G.........
 4808 1c000000 14030000 33ddffff e6020000  ........3.......
 4818 00410e10 8602430d 0603e102 0c070800  .A....C.........
 4828 1c000000 34030000 f9dfffff 92000000  ....4...........
 4838 00410e10 8602430d 06028d0c 07080000  .A....C.........
 4848 1c000000 54030000 6be0ffff 2f000000  ....T...k.../...
 4858 00410e10 8602430d 066a0c07 08000000  .A....C..j......
 4868 1c000000 74030000 7ae0ffff 52000000  ....t...z...R...
 4878 00410e10 8602430d 06024d0c 07080000  .A....C...M.....
 4888 1c000000 94030000 ace0ffff fb000000  ................
 4898 00410e10 8602430d 0602f60c 07080000  .A....C.........
 48a8 1c000000 b4030000 87e1ffff 21000000  ............!...
 48b8 00410e10 8602430d 065c0c07 08000000  .A....C..\......
 48c8 1c000000 d4030000 88e1ffff d1000000  ................
 48d8 00410e10 8602430d 0602cc0c 07080000  .A....C.........
 48e8 1c000000 f4030000 39e2ffff c8000000  ........9.......
 48f8 00410e10 8602430d 0602c30c 07080000  .A....C.........
 4908 1c000000 14040000 e1e2ffff e5000000  ................
 4918 00410e10 8602430d 0602e00c 07080000  .A....C.........
 4928 1c000000 34040000 a6e3ffff 54020000  ....4.......T...
 4938 00410e10 8602430d 06034f02 0c070800  .A....C...O.....
 4948 1c000000 54040000 dae5ffff 55000000  ....T.......U...
 4958 00410e10 8602430d 0602500c 07080000  .A....C...P.....
 4968 1c000000 74040000 0fe6ffff 5c000000  ....t.......\...
 4978 00410e10 8602430d 0602570c 07080000  .A....C...W.....
 4988 1c000000 94040000 4be6ffff 36000000  ........K...6...
 4998 00410e10 8602430d 06710c07 08000000  .A....C..q......
 49a8 1c000000 b4040000 61e6ffff 68010000  ........a...h...
 49b8 00410e10 8602430d 06036301 0c070800  .A....C...c.....
 49c8 1c000000 d4040000 a9e7ffff 31010000  ............1...
 49d8 00410e10 8602430d 06032c01 0c070800  .A....C...,.....
 49e8 1c000000 f4040000 bae8ffff 7a000000  ............z...
 49f8 00410e10 8602430d 0602750c 07080000  .A....C...u.....
 4a08 1c000000 14050000 14e9ffff 64000000  ............d...
 4a18 00410e10 8602430d 06025f0c 07080000  .A....C..._.....
 4a28 1c000000 34050000 58e9ffff 3f000000  ....4...X...?...
 4a38 00410e10 8602430d 067a0c07 08000000  .A....C..z......
 4a48 1c000000 54050000 77e9ffff 1f000000  ....T...w.......
 4a58 00410e10 8602430d 065a0c07 08000000  .A....C..Z......
 4a68 1c000000 74050000 76e9ffff f1000000  ....t...v.......
 4a78 00410e10 8602430d 0602ec0c 07080000  .A....C.........
 4a88 1c000000 94050000 47eaffff b8020000  ........G.......
 4a98 00410e10 8602430d 0603b302 0c070800  .A....C.........
 4aa8 1c000000 b4050000 dfecffff e5000000  ................
 4ab8 00410e10 8602430d 0602e00c 07080000  .A....C.........
 4ac8 1c000000 d4050000 a4edffff 48010000  ............H...
 4ad8 00410e10 8602430d 06034301 0c070800  .A....C...C.....
 4ae8 1c000000 f4050000 cceeffff 0c010000  ................
 4af8 00410e10 8602430d 06030701 0c070800  .A....C.........
 4b08 1c000000 14060000 b8efffff a1000000  ................
 4b18 00410e10 8602430d 06029c0c 07080000  .A....C.........
 4b28 00000000                             ....            
Contents of section .init_array:
 5dc0 c0130000 00000000                    ........        
Contents of section .fini_array:
 5dc8 80130000 00000000                    ........        
Contents of section .dynamic:
 5dd0 01000000 00000000 84010000 00000000  ................
 5de0 01000000 00000000 8e010000 00000000  ................
 5df0 0c000000 00000000 00100000 00000000  ................
 5e00 0d000000 00000000 6c3b0000 00000000  ........l;......
 5e10 19000000 00000000 c05d0000 00000000  .........]......
 5e20 1b000000 00000000 08000000 00000000  ................
 5e30 1a000000 00000000 c85d0000 00000000  .........]......
 5e40 1c000000 00000000 08000000 00000000  ................
 5e50 f5feff6f 00000000 a0030000 00000000  ...o............
 5e60 05000000 00000000 a0080000 00000000  ................
 5e70 06000000 00000000 d8030000 00000000  ................
 5e80 0a000000 00000000 af010000 00000000  ................
 5e90 0b000000 00000000 18000000 00000000  ................
 5ea0 15000000 00000000 00000000 00000000  ................
 5eb0 03000000 00000000 e85f0000 00000000  ........._......
 5ec0 02000000 00000000 f0030000 00000000  ................
 5ed0 14000000 00000000 07000000 00000000  ................
 5ee0 17000000 00000000 100c0000 00000000  ................
 5ef0 07000000 00000000 080b0000 00000000  ................
 5f00 08000000 00000000 08010000 00000000  ................
 5f10 09000000 00000000 18000000 00000000  ................
 5f20 fbffff6f 00000000 00000008 00000000  ...o............
 5f30 feffff6f 00000000 b80a0000 00000000  ...o............
 5f40 ffffff6f 00000000 02000000 00000000  ...o............
 5f50 f0ffff6f 00000000 500a0000 00000000  ...o....P.......
 5f60 f9ffff6f 00000000 03000000 00000000  ...o............
 5f70 00000000 00000000 00000000 00000000  ................
 5f80 00000000 00000000 00000000 00000000  ................
 5f90 00000000 00000000 00000000 00000000  ................
 5fa0 00000000 00000000 00000000 00000000  ................
 5fb0 00000000 00000000 00000000 00000000  ................
Contents of section .got:
 5fc0 00000000 00000000 00000000 00000000  ................
 5fd0 00000000 00000000 00000000 00000000  ................
 5fe0 00000000 00000000                    ........        
Contents of section .got.plt:
 5fe8 d05d0000 00000000 00000000 00000000  .]..............
 5ff8 00000000 00000000 36100000 00000000  ........6.......
 6008 46100000 00000000 56100000 00000000  F.......V.......
 6018 66100000 00000000 76100000 00000000  f.......v.......
 6028 86100000 00000000 96100000 00000000  ................
 6038 a6100000 00000000 b6100000 00000000  ................
 6048 c6100000 00000000 d6100000 00000000  ................
 6058 e6100000 00000000 f6100000 00000000  ................
 6068 06110000 00000000 16110000 00000000  ................
 6078 26110000 00000000 36110000 00000000  &.......6.......
 6088 46110000 00000000 56110000 00000000  F.......V.......
 6098 66110000 00000000 76110000 00000000  f.......v.......
 60a8 86110000 00000000 96110000 00000000  ................
 60b8 a6110000 00000000 b6110000 00000000  ................
 60c8 c6110000 00000000 d6110000 00000000  ................
 60d8 e6110000 00000000 f6110000 00000000  ................
 60e8 06120000 00000000 16120000 00000000  ................
 60f8 26120000 00000000 36120000 00000000  &.......6.......
 6108 46120000 00000000 56120000 00000000  F.......V.......
 6118 66120000 00000000 76120000 00000000  f.......v.......
 6128 86120000 00000000 96120000 00000000  ................
 6138 a6120000 00000000 b6120000 00000000  ................
 6148 c6120000 00000000                    ........        
Contents of section .data:
 6150 00000000 00000000 58610000 00000000  ........Xa......
Contents of section .comment:
 0000 4743433a 20284465 6269616e 2031322e  GCC: (Debian 12.
 0010 322e302d 31342920 31322e32 2e3000    2.0-14) 12.2.0. 

Disassembly of section .init:

0000000000001000 <.init>:
    1000:	48 83 ec 08          	sub    rsp,0x8
    1004:	48 8b 05 c5 4f 00 00 	mov    rax,QWORD PTR [rip+0x4fc5]        # 5fd0 <__cxa_finalize@plt+0x4d00>
    100b:	48 85 c0             	test   rax,rax
    100e:	74 02                	je     1012 <strncpy@plt-0x1e>
    1010:	ff d0                	call   rax
    1012:	48 83 c4 08          	add    rsp,0x8
    1016:	c3                   	ret    

Disassembly of section .plt:

0000000000001020 <strncpy@plt-0x10>:
    1020:	ff 35 ca 4f 00 00    	push   QWORD PTR [rip+0x4fca]        # 5ff0 <__cxa_finalize@plt+0x4d20>
    1026:	ff 25 cc 4f 00 00    	jmp    QWORD PTR [rip+0x4fcc]        # 5ff8 <__cxa_finalize@plt+0x4d28>
    102c:	0f 1f 40 00          	nop    DWORD PTR [rax+0x0]

0000000000001030 <strncpy@plt>:
    1030:	ff 25 ca 4f 00 00    	jmp    QWORD PTR [rip+0x4fca]        # 6000 <__cxa_finalize@plt+0x4d30>
    1036:	68 00 00 00 00       	push   0x0
    103b:	e9 e0 ff ff ff       	jmp    1020 <strncpy@plt-0x10>

0000000000001040 <sem_wait@plt>:
    1040:	ff 25 c2 4f 00 00    	jmp    QWORD PTR [rip+0x4fc2]        # 6008 <__cxa_finalize@plt+0x4d38>
    1046:	68 01 00 00 00       	push   0x1
    104b:	e9 d0 ff ff ff       	jmp    1020 <strncpy@plt-0x10>

0000000000001050 <write@plt>:
    1050:	ff 25 ba 4f 00 00    	jmp    QWORD PTR [rip+0x4fba]        # 6010 <__cxa_finalize@plt+0x4d40>
    1056:	68 02 00 00 00       	push   0x2
    105b:	e9 c0 ff ff ff       	jmp    1020 <strncpy@plt-0x10>

0000000000001060 <getpid@plt>:
    1060:	ff 25 b2 4f 00 00    	jmp    QWORD PTR [rip+0x4fb2]        # 6018 <__cxa_finalize@plt+0x4d48>
    1066:	68 03 00 00 00       	push   0x3
    106b:	e9 b0 ff ff ff       	jmp    1020 <strncpy@plt-0x10>

0000000000001070 <mmap@plt>:
    1070:	ff 25 aa 4f 00 00    	jmp    QWORD PTR [rip+0x4faa]        # 6020 <__cxa_finalize@plt+0x4d50>
    1076:	68 04 00 00 00       	push   0x4
    107b:	e9 a0 ff ff ff       	jmp    1020 <strncpy@plt-0x10>

0000000000001080 <system@plt>:
    1080:	ff 25 a2 4f 00 00    	jmp    QWORD PTR [rip+0x4fa2]        # 6028 <__cxa_finalize@plt+0x4d58>
    1086:	68 05 00 00 00       	push   0x5
    108b:	e9 90 ff ff ff       	jmp    1020 <strncpy@plt-0x10>

0000000000001090 <dup2@plt>:
    1090:	ff 25 9a 4f 00 00    	jmp    QWORD PTR [rip+0x4f9a]        # 6030 <__cxa_finalize@plt+0x4d60>
    1096:	68 06 00 00 00       	push   0x6
    109b:	e9 80 ff ff ff       	jmp    1020 <strncpy@plt-0x10>

00000000000010a0 <printf@plt>:
    10a0:	ff 25 92 4f 00 00    	jmp    QWORD PTR [rip+0x4f92]        # 6038 <__cxa_finalize@plt+0x4d68>
    10a6:	68 07 00 00 00       	push   0x7
    10ab:	e9 70 ff ff ff       	jmp    1020 <strncpy@plt-0x10>

00000000000010b0 <difftime@plt>:
    10b0:	ff 25 8a 4f 00 00    	jmp    QWORD PTR [rip+0x4f8a]        # 6040 <__cxa_finalize@plt+0x4d70>
    10b6:	68 08 00 00 00       	push   0x8
    10bb:	e9 60 ff ff ff       	jmp    1020 <strncpy@plt-0x10>

00000000000010c0 <snprintf@plt>:
    10c0:	ff 25 82 4f 00 00    	jmp    QWORD PTR [rip+0x4f82]        # 6048 <__cxa_finalize@plt+0x4d78>
    10c6:	68 09 00 00 00       	push   0x9
    10cb:	e9 50 ff ff ff       	jmp    1020 <strncpy@plt-0x10>

00000000000010d0 <ftruncate@plt>:
    10d0:	ff 25 7a 4f 00 00    	jmp    QWORD PTR [rip+0x4f7a]        # 6050 <__cxa_finalize@plt+0x4d80>
    10d6:	68 0a 00 00 00       	push   0xa
    10db:	e9 40 ff ff ff       	jmp    1020 <strncpy@plt-0x10>

00000000000010e0 <memset@plt>:
    10e0:	ff 25 72 4f 00 00    	jmp    QWORD PTR [rip+0x4f72]        # 6058 <__cxa_finalize@plt+0x4d88>
    10e6:	68 0b 00 00 00       	push   0xb
    10eb:	e9 30 ff ff ff       	jmp    1020 <strncpy@plt-0x10>

00000000000010f0 <close@plt>:
    10f0:	ff 25 6a 4f 00 00    	jmp    QWORD PTR [rip+0x4f6a]        # 6060 <__cxa_finalize@plt+0x4d90>
    10f6:	68 0c 00 00 00       	push   0xc
    10fb:	e9 20 ff ff ff       	jmp    1020 <strncpy@plt-0x10>

0000000000001100 <pipe@plt>:
    1100:	ff 25 62 4f 00 00    	jmp    QWORD PTR [rip+0x4f62]        # 6068 <__cxa_finalize@plt+0x4d98>
    1106:	68 0d 00 00 00       	push   0xd
    110b:	e9 10 ff ff ff       	jmp    1020 <strncpy@plt-0x10>

0000000000001110 <sem_post@plt>:
    1110:	ff 25 5a 4f 00 00    	jmp    QWORD PTR [rip+0x4f5a]        # 6070 <__cxa_finalize@plt+0x4da0>
    1116:	68 0e 00 00 00       	push   0xe
    111b:	e9 00 ff ff ff       	jmp    1020 <strncpy@plt-0x10>

0000000000001120 <cos@plt>:
    1120:	ff 25 52 4f 00 00    	jmp    QWORD PTR [rip+0x4f52]        # 6078 <__cxa_finalize@plt+0x4da8>
    1126:	68 0f 00 00 00       	push   0xf
    112b:	e9 f0 fe ff ff       	jmp    1020 <strncpy@plt-0x10>

0000000000001130 <read@plt>:
    1130:	ff 25 4a 4f 00 00    	jmp    QWORD PTR [rip+0x4f4a]        # 6080 <__cxa_finalize@plt+0x4db0>
    1136:	68 10 00 00 00       	push   0x10
    113b:	e9 e0 fe ff ff       	jmp    1020 <strncpy@plt-0x10>

0000000000001140 <srand@plt>:
    1140:	ff 25 42 4f 00 00    	jmp    QWORD PTR [rip+0x4f42]        # 6088 <__cxa_finalize@plt+0x4db8>
    1146:	68 11 00 00 00       	push   0x11
    114b:	e9 d0 fe ff ff       	jmp    1020 <strncpy@plt-0x10>

0000000000001150 <execve@plt>:
    1150:	ff 25 3a 4f 00 00    	jmp    QWORD PTR [rip+0x4f3a]        # 6090 <__cxa_finalize@plt+0x4dc0>
    1156:	68 12 00 00 00       	push   0x12
    115b:	e9 c0 fe ff ff       	jmp    1020 <strncpy@plt-0x10>

0000000000001160 <fprintf@plt>:
    1160:	ff 25 32 4f 00 00    	jmp    QWORD PTR [rip+0x4f32]        # 6098 <__cxa_finalize@plt+0x4dc8>
    1166:	68 13 00 00 00       	push   0x13
    116b:	e9 b0 fe ff ff       	jmp    1020 <strncpy@plt-0x10>

0000000000001170 <umask@plt>:
    1170:	ff 25 2a 4f 00 00    	jmp    QWORD PTR [rip+0x4f2a]        # 60a0 <__cxa_finalize@plt+0x4dd0>
    1176:	68 14 00 00 00       	push   0x14
    117b:	e9 a0 fe ff ff       	jmp    1020 <strncpy@plt-0x10>

0000000000001180 <__xpg_basename@plt>:
    1180:	ff 25 22 4f 00 00    	jmp    QWORD PTR [rip+0x4f22]        # 60a8 <__cxa_finalize@plt+0x4dd8>
    1186:	68 15 00 00 00       	push   0x15
    118b:	e9 90 fe ff ff       	jmp    1020 <strncpy@plt-0x10>

0000000000001190 <time@plt>:
    1190:	ff 25 1a 4f 00 00    	jmp    QWORD PTR [rip+0x4f1a]        # 60b0 <__cxa_finalize@plt+0x4de0>
    1196:	68 16 00 00 00       	push   0x16
    119b:	e9 80 fe ff ff       	jmp    1020 <strncpy@plt-0x10>

00000000000011a0 <select@plt>:
    11a0:	ff 25 12 4f 00 00    	jmp    QWORD PTR [rip+0x4f12]        # 60b8 <__cxa_finalize@plt+0x4de8>
    11a6:	68 17 00 00 00       	push   0x17
    11ab:	e9 70 fe ff ff       	jmp    1020 <strncpy@plt-0x10>

00000000000011b0 <munmap@plt>:
    11b0:	ff 25 0a 4f 00 00    	jmp    QWORD PTR [rip+0x4f0a]        # 60c0 <__cxa_finalize@plt+0x4df0>
    11b6:	68 18 00 00 00       	push   0x18
    11bb:	e9 60 fe ff ff       	jmp    1020 <strncpy@plt-0x10>

00000000000011c0 <sem_init@plt>:
    11c0:	ff 25 02 4f 00 00    	jmp    QWORD PTR [rip+0x4f02]        # 60c8 <__cxa_finalize@plt+0x4df8>
    11c6:	68 19 00 00 00       	push   0x19
    11cb:	e9 50 fe ff ff       	jmp    1020 <strncpy@plt-0x10>

00000000000011d0 <waitpid@plt>:
    11d0:	ff 25 fa 4e 00 00    	jmp    QWORD PTR [rip+0x4efa]        # 60d0 <__cxa_finalize@plt+0x4e00>
    11d6:	68 1a 00 00 00       	push   0x1a
    11db:	e9 40 fe ff ff       	jmp    1020 <strncpy@plt-0x10>

00000000000011e0 <perror@plt>:
    11e0:	ff 25 f2 4e 00 00    	jmp    QWORD PTR [rip+0x4ef2]        # 60d8 <__cxa_finalize@plt+0x4e08>
    11e6:	68 1b 00 00 00       	push   0x1b
    11eb:	e9 30 fe ff ff       	jmp    1020 <strncpy@plt-0x10>

00000000000011f0 <getopt@plt>:
    11f0:	ff 25 ea 4e 00 00    	jmp    QWORD PTR [rip+0x4eea]        # 60e0 <__cxa_finalize@plt+0x4e10>
    11f6:	68 1c 00 00 00       	push   0x1c
    11fb:	e9 20 fe ff ff       	jmp    1020 <strncpy@plt-0x10>

0000000000001200 <sin@plt>:
    1200:	ff 25 e2 4e 00 00    	jmp    QWORD PTR [rip+0x4ee2]        # 60e8 <__cxa_finalize@plt+0x4e18>
    1206:	68 1d 00 00 00       	push   0x1d
    120b:	e9 10 fe ff ff       	jmp    1020 <strncpy@plt-0x10>

0000000000001210 <atoi@plt>:
    1210:	ff 25 da 4e 00 00    	jmp    QWORD PTR [rip+0x4eda]        # 60f0 <__cxa_finalize@plt+0x4e20>
    1216:	68 1e 00 00 00       	push   0x1e
    121b:	e9 00 fe ff ff       	jmp    1020 <strncpy@plt-0x10>

0000000000001220 <exit@plt>:
    1220:	ff 25 d2 4e 00 00    	jmp    QWORD PTR [rip+0x4ed2]        # 60f8 <__cxa_finalize@plt+0x4e28>
    1226:	68 1f 00 00 00       	push   0x1f
    122b:	e9 f0 fd ff ff       	jmp    1020 <strncpy@plt-0x10>

0000000000001230 <fwrite@plt>:
    1230:	ff 25 ca 4e 00 00    	jmp    QWORD PTR [rip+0x4eca]        # 6100 <__cxa_finalize@plt+0x4e30>
    1236:	68 20 00 00 00       	push   0x20
    123b:	e9 e0 fd ff ff       	jmp    1020 <strncpy@plt-0x10>

0000000000001240 <shm_open@plt>:
    1240:	ff 25 c2 4e 00 00    	jmp    QWORD PTR [rip+0x4ec2]        # 6108 <__cxa_finalize@plt+0x4e38>
    1246:	68 21 00 00 00       	push   0x21
    124b:	e9 d0 fd ff ff       	jmp    1020 <strncpy@plt-0x10>

0000000000001250 <setuid@plt>:
    1250:	ff 25 ba 4e 00 00    	jmp    QWORD PTR [rip+0x4eba]        # 6110 <__cxa_finalize@plt+0x4e40>
    1256:	68 22 00 00 00       	push   0x22
    125b:	e9 c0 fd ff ff       	jmp    1020 <strncpy@plt-0x10>

0000000000001260 <shm_unlink@plt>:
    1260:	ff 25 b2 4e 00 00    	jmp    QWORD PTR [rip+0x4eb2]        # 6118 <__cxa_finalize@plt+0x4e48>
    1266:	68 23 00 00 00       	push   0x23
    126b:	e9 b0 fd ff ff       	jmp    1020 <strncpy@plt-0x10>

0000000000001270 <sleep@plt>:
    1270:	ff 25 aa 4e 00 00    	jmp    QWORD PTR [rip+0x4eaa]        # 6120 <__cxa_finalize@plt+0x4e50>
    1276:	68 24 00 00 00       	push   0x24
    127b:	e9 a0 fd ff ff       	jmp    1020 <strncpy@plt-0x10>

0000000000001280 <wait@plt>:
    1280:	ff 25 a2 4e 00 00    	jmp    QWORD PTR [rip+0x4ea2]        # 6128 <__cxa_finalize@plt+0x4e58>
    1286:	68 25 00 00 00       	push   0x25
    128b:	e9 90 fd ff ff       	jmp    1020 <strncpy@plt-0x10>

0000000000001290 <sem_destroy@plt>:
    1290:	ff 25 9a 4e 00 00    	jmp    QWORD PTR [rip+0x4e9a]        # 6130 <__cxa_finalize@plt+0x4e60>
    1296:	68 26 00 00 00       	push   0x26
    129b:	e9 80 fd ff ff       	jmp    1020 <strncpy@plt-0x10>

00000000000012a0 <fork@plt>:
    12a0:	ff 25 92 4e 00 00    	jmp    QWORD PTR [rip+0x4e92]        # 6138 <__cxa_finalize@plt+0x4e68>
    12a6:	68 27 00 00 00       	push   0x27
    12ab:	e9 70 fd ff ff       	jmp    1020 <strncpy@plt-0x10>

00000000000012b0 <rand@plt>:
    12b0:	ff 25 8a 4e 00 00    	jmp    QWORD PTR [rip+0x4e8a]        # 6140 <__cxa_finalize@plt+0x4e70>
    12b6:	68 28 00 00 00       	push   0x28
    12bb:	e9 60 fd ff ff       	jmp    1020 <strncpy@plt-0x10>

00000000000012c0 <usleep@plt>:
    12c0:	ff 25 82 4e 00 00    	jmp    QWORD PTR [rip+0x4e82]        # 6148 <__cxa_finalize@plt+0x4e78>
    12c6:	68 29 00 00 00       	push   0x29
    12cb:	e9 50 fd ff ff       	jmp    1020 <strncpy@plt-0x10>

Disassembly of section .plt.got:

00000000000012d0 <__cxa_finalize@plt>:
    12d0:	ff 25 0a 4d 00 00    	jmp    QWORD PTR [rip+0x4d0a]        # 5fe0 <__cxa_finalize@plt+0x4d10>
    12d6:	66 90                	xchg   ax,ax

Disassembly of section .text:

00000000000012e0 <.text>:
    12e0:	31 ed                	xor    ebp,ebp
    12e2:	49 89 d1             	mov    r9,rdx
    12e5:	5e                   	pop    rsi
    12e6:	48 89 e2             	mov    rdx,rsp
    12e9:	48 83 e4 f0          	and    rsp,0xfffffffffffffff0
    12ed:	50                   	push   rax
    12ee:	54                   	push   rsp
    12ef:	45 31 c0             	xor    r8d,r8d
    12f2:	31 c9                	xor    ecx,ecx
    12f4:	48 8d 3d ce 00 00 00 	lea    rdi,[rip+0xce]        # 13c9 <__cxa_finalize@plt+0xf9>
    12fb:	ff 15 bf 4c 00 00    	call   QWORD PTR [rip+0x4cbf]        # 5fc0 <__cxa_finalize@plt+0x4cf0>
    1301:	f4                   	hlt    
    1302:	66 2e 0f 1f 84 00 00 	cs nop WORD PTR [rax+rax*1+0x0]
    1309:	00 00 00 
    130c:	0f 1f 40 00          	nop    DWORD PTR [rax+0x0]
    1310:	48 8d 3d 49 4e 00 00 	lea    rdi,[rip+0x4e49]        # 6160 <optind@GLIBC_2.2.5>
    1317:	48 8d 05 42 4e 00 00 	lea    rax,[rip+0x4e42]        # 6160 <optind@GLIBC_2.2.5>
    131e:	48 39 f8             	cmp    rax,rdi
    1321:	74 15                	je     1338 <__cxa_finalize@plt+0x68>
    1323:	48 8b 05 9e 4c 00 00 	mov    rax,QWORD PTR [rip+0x4c9e]        # 5fc8 <__cxa_finalize@plt+0x4cf8>
    132a:	48 85 c0             	test   rax,rax
    132d:	74 09                	je     1338 <__cxa_finalize@plt+0x68>
    132f:	ff e0                	jmp    rax
    1331:	0f 1f 80 00 00 00 00 	nop    DWORD PTR [rax+0x0]
    1338:	c3                   	ret    
    1339:	0f 1f 80 00 00 00 00 	nop    DWORD PTR [rax+0x0]
    1340:	48 8d 3d 19 4e 00 00 	lea    rdi,[rip+0x4e19]        # 6160 <optind@GLIBC_2.2.5>
    1347:	48 8d 35 12 4e 00 00 	lea    rsi,[rip+0x4e12]        # 6160 <optind@GLIBC_2.2.5>
    134e:	48 29 fe             	sub    rsi,rdi
    1351:	48 89 f0             	mov    rax,rsi
    1354:	48 c1 ee 3f          	shr    rsi,0x3f
    1358:	48 c1 f8 03          	sar    rax,0x3
    135c:	48 01 c6             	add    rsi,rax
    135f:	48 d1 fe             	sar    rsi,1
    1362:	74 14                	je     1378 <__cxa_finalize@plt+0xa8>
    1364:	48 8b 05 6d 4c 00 00 	mov    rax,QWORD PTR [rip+0x4c6d]        # 5fd8 <__cxa_finalize@plt+0x4d08>
    136b:	48 85 c0             	test   rax,rax
    136e:	74 08                	je     1378 <__cxa_finalize@plt+0xa8>
    1370:	ff e0                	jmp    rax
    1372:	66 0f 1f 44 00 00    	nop    WORD PTR [rax+rax*1+0x0]
    1378:	c3                   	ret    
    1379:	0f 1f 80 00 00 00 00 	nop    DWORD PTR [rax+0x0]
    1380:	f3 0f 1e fa          	endbr64 
    1384:	80 3d 1d 4e 00 00 00 	cmp    BYTE PTR [rip+0x4e1d],0x0        # 61a8 <stderr@GLIBC_2.2.5+0x8>
    138b:	75 2b                	jne    13b8 <__cxa_finalize@plt+0xe8>
    138d:	55                   	push   rbp
    138e:	48 83 3d 4a 4c 00 00 	cmp    QWORD PTR [rip+0x4c4a],0x0        # 5fe0 <__cxa_finalize@plt+0x4d10>
    1395:	00 
    1396:	48 89 e5             	mov    rbp,rsp
    1399:	74 0c                	je     13a7 <__cxa_finalize@plt+0xd7>
    139b:	48 8b 3d b6 4d 00 00 	mov    rdi,QWORD PTR [rip+0x4db6]        # 6158 <__cxa_finalize@plt+0x4e88>
    13a2:	e8 29 ff ff ff       	call   12d0 <__cxa_finalize@plt>
    13a7:	e8 64 ff ff ff       	call   1310 <__cxa_finalize@plt+0x40>
    13ac:	c6 05 f5 4d 00 00 01 	mov    BYTE PTR [rip+0x4df5],0x1        # 61a8 <stderr@GLIBC_2.2.5+0x8>
    13b3:	5d                   	pop    rbp
    13b4:	c3                   	ret    
    13b5:	0f 1f 00             	nop    DWORD PTR [rax]
    13b8:	c3                   	ret    
    13b9:	0f 1f 80 00 00 00 00 	nop    DWORD PTR [rax+0x0]
    13c0:	f3 0f 1e fa          	endbr64 
    13c4:	e9 77 ff ff ff       	jmp    1340 <__cxa_finalize@plt+0x70>
    13c9:	55                   	push   rbp
    13ca:	48 89 e5             	mov    rbp,rsp
    13cd:	41 57                	push   r15
    13cf:	41 56                	push   r14
    13d1:	41 55                	push   r13
    13d3:	41 54                	push   r12
    13d5:	53                   	push   rbx
    13d6:	48 81 ec e8 00 00 00 	sub    rsp,0xe8
    13dd:	89 bd fc fe ff ff    	mov    DWORD PTR [rbp-0x104],edi
    13e3:	48 89 b5 f0 fe ff ff 	mov    QWORD PTR [rbp-0x110],rsi
    13ea:	48 89 e0             	mov    rax,rsp
    13ed:	48 89 c3             	mov    rbx,rax
    13f0:	48 8d 05 11 2c 00 00 	lea    rax,[rip+0x2c11]        # 4008 <__cxa_finalize@plt+0x2d38>
    13f7:	48 89 c7             	mov    rdi,rax
    13fa:	e8 81 fc ff ff       	call   1080 <system@plt>
    13ff:	48 8d 55 80          	lea    rdx,[rbp-0x80]
    1403:	48 8b 8d f0 fe ff ff 	mov    rcx,QWORD PTR [rbp-0x110]
    140a:	8b 85 fc fe ff ff    	mov    eax,DWORD PTR [rbp-0x104]
    1410:	48 89 ce             	mov    rsi,rcx
    1413:	89 c7                	mov    edi,eax
    1415:	e8 bd 20 00 00       	call   34d7 <__cxa_finalize@plt+0x2207>
    141a:	48 8d 45 80          	lea    rax,[rbp-0x80]
    141e:	48 89 c7             	mov    rdi,rax
    1421:	e8 69 23 00 00       	call   378f <__cxa_finalize@plt+0x24bf>
    1426:	48 8d 45 80          	lea    rax,[rbp-0x80]
    142a:	48 89 c7             	mov    rdi,rax
    142d:	e8 42 24 00 00       	call   3874 <__cxa_finalize@plt+0x25a4>
    1432:	48 8d 85 40 ff ff ff 	lea    rax,[rbp-0xc0]
    1439:	48 89 c7             	mov    rdi,rax
    143c:	e8 81 0b 00 00       	call   1fc2 <__cxa_finalize@plt+0xcf2>
    1441:	48 89 45 c0          	mov    QWORD PTR [rbp-0x40],rax
    1445:	48 8b 45 c0          	mov    rax,QWORD PTR [rbp-0x40]
    1449:	48 89 c7             	mov    rdi,rax
    144c:	e8 28 1d 00 00       	call   3179 <__cxa_finalize@plt+0x1ea9>
    1451:	48 8d 95 00 ff ff ff 	lea    rdx,[rbp-0x100]
    1458:	48 8d 45 80          	lea    rax,[rbp-0x80]
    145c:	48 89 d6             	mov    rsi,rdx
    145f:	48 89 c7             	mov    rdi,rax
    1462:	e8 f2 0b 00 00       	call   2059 <__cxa_finalize@plt+0xd89>
    1467:	48 89 45 b8          	mov    QWORD PTR [rbp-0x48],rax
    146b:	48 8b 55 b8          	mov    rdx,QWORD PTR [rbp-0x48]
    146f:	48 8d 45 80          	lea    rax,[rbp-0x80]
    1473:	48 89 d6             	mov    rsi,rdx
    1476:	48 89 c7             	mov    rdi,rax
    1479:	e8 93 1b 00 00       	call   3011 <__cxa_finalize@plt+0x1d41>
    147e:	48 8b 45 b8          	mov    rax,QWORD PTR [rbp-0x48]
    1482:	48 89 c7             	mov    rdi,rax
    1485:	e8 b9 10 00 00       	call   2543 <__cxa_finalize@plt+0x1273>
    148a:	48 8b 45 a0          	mov    rax,QWORD PTR [rbp-0x60]
    148e:	48 85 c0             	test   rax,rax
    1491:	74 0f                	je     14a2 <__cxa_finalize@plt+0x1d2>
    1493:	48 8d 45 80          	lea    rax,[rbp-0x80]
    1497:	48 89 c7             	mov    rdi,rax
    149a:	e8 9a 09 00 00       	call   1e39 <__cxa_finalize@plt+0xb69>
    149f:	89 45 cc             	mov    DWORD PTR [rbp-0x34],eax
    14a2:	48 8b 45 b8          	mov    rax,QWORD PTR [rbp-0x48]
    14a6:	8b 40 04             	mov    eax,DWORD PTR [rax+0x4]
    14a9:	89 c2                	mov    edx,eax
    14ab:	48 83 ea 01          	sub    rdx,0x1
    14af:	48 89 55 b0          	mov    QWORD PTR [rbp-0x50],rdx
    14b3:	89 c2                	mov    edx,eax
    14b5:	49 89 d6             	mov    r14,rdx
    14b8:	41 bf 00 00 00 00    	mov    r15d,0x0
    14be:	89 c2                	mov    edx,eax
    14c0:	49 89 d4             	mov    r12,rdx
    14c3:	41 bd 00 00 00 00    	mov    r13d,0x0
    14c9:	89 c0                	mov    eax,eax
    14cb:	48 8d 14 85 00 00 00 	lea    rdx,[rax*4+0x0]
    14d2:	00 
    14d3:	b8 10 00 00 00       	mov    eax,0x10
    14d8:	48 83 e8 01          	sub    rax,0x1
    14dc:	48 01 d0             	add    rax,rdx
    14df:	b9 10 00 00 00       	mov    ecx,0x10
    14e4:	ba 00 00 00 00       	mov    edx,0x0
    14e9:	48 f7 f1             	div    rcx
    14ec:	48 6b c0 10          	imul   rax,rax,0x10
    14f0:	48 29 c4             	sub    rsp,rax
    14f3:	48 89 e0             	mov    rax,rsp
    14f6:	48 83 c0 03          	add    rax,0x3
    14fa:	48 c1 e8 02          	shr    rax,0x2
    14fe:	48 c1 e0 02          	shl    rax,0x2
    1502:	48 89 45 a8          	mov    QWORD PTR [rbp-0x58],rax
    1506:	48 8b 45 b8          	mov    rax,QWORD PTR [rbp-0x48]
    150a:	8b 40 04             	mov    eax,DWORD PTR [rax+0x4]
    150d:	48 8b 55 a8          	mov    rdx,QWORD PTR [rbp-0x58]
    1511:	48 89 d6             	mov    rsi,rdx
    1514:	89 c7                	mov    edi,eax
    1516:	e8 e3 0b 00 00       	call   20fe <__cxa_finalize@plt+0xe2e>
    151b:	48 8b 55 a8          	mov    rdx,QWORD PTR [rbp-0x58]
    151f:	48 8b 4d b8          	mov    rcx,QWORD PTR [rbp-0x48]
    1523:	48 8d 45 80          	lea    rax,[rbp-0x80]
    1527:	48 89 ce             	mov    rsi,rcx
    152a:	48 89 c7             	mov    rdi,rax
    152d:	e8 9f 07 00 00       	call   1cd1 <__cxa_finalize@plt+0xa01>
    1532:	8b 45 90             	mov    eax,DWORD PTR [rbp-0x70]
    1535:	48 8b 55 a8          	mov    rdx,QWORD PTR [rbp-0x58]
    1539:	48 89 d6             	mov    rsi,rdx
    153c:	89 c7                	mov    edi,eax
    153e:	e8 93 0c 00 00       	call   21d6 <__cxa_finalize@plt+0xf06>
    1543:	48 8b 4d a8          	mov    rcx,QWORD PTR [rbp-0x58]
    1547:	48 8b 55 c0          	mov    rdx,QWORD PTR [rbp-0x40]
    154b:	48 8b 75 b8          	mov    rsi,QWORD PTR [rbp-0x48]
    154f:	48 8d 45 80          	lea    rax,[rbp-0x80]
    1553:	48 89 c7             	mov    rdi,rax
    1556:	e8 60 00 00 00       	call   15bb <__cxa_finalize@plt+0x2eb>
    155b:	48 8b 45 a0          	mov    rax,QWORD PTR [rbp-0x60]
    155f:	48 85 c0             	test   rax,rax
    1562:	74 0a                	je     156e <__cxa_finalize@plt+0x29e>
    1564:	8b 45 cc             	mov    eax,DWORD PTR [rbp-0x34]
    1567:	89 c7                	mov    edi,eax
    1569:	e8 3f 05 00 00       	call   1aad <__cxa_finalize@plt+0x7dd>
    156e:	48 8b 45 b8          	mov    rax,QWORD PTR [rbp-0x48]
    1572:	48 89 c7             	mov    rdi,rax
    1575:	e8 8e 05 00 00       	call   1b08 <__cxa_finalize@plt+0x838>
    157a:	48 8b 45 c0          	mov    rax,QWORD PTR [rbp-0x40]
    157e:	48 89 c7             	mov    rdi,rax
    1581:	e8 60 1e 00 00       	call   33e6 <__cxa_finalize@plt+0x2116>
    1586:	48 8d 85 40 ff ff ff 	lea    rax,[rbp-0xc0]
    158d:	48 89 c7             	mov    rdi,rax
    1590:	e8 33 25 00 00       	call   3ac8 <__cxa_finalize@plt+0x27f8>
    1595:	48 8d 85 00 ff ff ff 	lea    rax,[rbp-0x100]
    159c:	48 89 c7             	mov    rdi,rax
    159f:	e8 24 25 00 00       	call   3ac8 <__cxa_finalize@plt+0x27f8>
    15a4:	b8 00 00 00 00       	mov    eax,0x0
    15a9:	48 89 dc             	mov    rsp,rbx
    15ac:	48 8d 65 d8          	lea    rsp,[rbp-0x28]
    15b0:	5b                   	pop    rbx
    15b1:	41 5c                	pop    r12
    15b3:	41 5d                	pop    r13
    15b5:	41 5e                	pop    r14
    15b7:	41 5f                	pop    r15
    15b9:	5d                   	pop    rbp
    15ba:	c3                   	ret    
    15bb:	55                   	push   rbp
    15bc:	48 89 e5             	mov    rbp,rsp
    15bf:	48 83 ec 40          	sub    rsp,0x40
    15c3:	48 89 7d d8          	mov    QWORD PTR [rbp-0x28],rdi
    15c7:	48 89 75 d0          	mov    QWORD PTR [rbp-0x30],rsi
    15cb:	48 89 55 c8          	mov    QWORD PTR [rbp-0x38],rdx
    15cf:	48 89 4d c0          	mov    QWORD PTR [rbp-0x40],rcx
    15d3:	bf 00 00 00 00       	mov    edi,0x0
    15d8:	e8 b3 fb ff ff       	call   1190 <time@plt>
    15dd:	48 89 45 f8          	mov    QWORD PTR [rbp-0x8],rax
    15e1:	c7 45 f4 00 00 00 00 	mov    DWORD PTR [rbp-0xc],0x0
    15e8:	48 8b 45 d8          	mov    rax,QWORD PTR [rbp-0x28]
    15ec:	48 8b 40 20          	mov    rax,QWORD PTR [rax+0x20]
    15f0:	48 85 c0             	test   rax,rax
    15f3:	74 13                	je     1608 <__cxa_finalize@plt+0x338>
    15f5:	48 8b 55 c8          	mov    rdx,QWORD PTR [rbp-0x38]
    15f9:	48 8b 45 d8          	mov    rax,QWORD PTR [rbp-0x28]
    15fd:	48 89 d6             	mov    rsi,rdx
    1600:	48 89 c7             	mov    rdi,rax
    1603:	e8 62 04 00 00       	call   1a6a <__cxa_finalize@plt+0x79a>
    1608:	48 8b 45 d0          	mov    rax,QWORD PTR [rbp-0x30]
    160c:	0f b6 80 70 01 00 00 	movzx  eax,BYTE PTR [rax+0x170]
    1613:	84 c0                	test   al,al
    1615:	75 69                	jne    1680 <__cxa_finalize@plt+0x3b0>
    1617:	4c 8d 4d f0          	lea    r9,[rbp-0x10]
    161b:	4c 8b 45 c0          	mov    r8,QWORD PTR [rbp-0x40]
    161f:	48 8b 4d c8          	mov    rcx,QWORD PTR [rbp-0x38]
    1623:	48 8b 55 d0          	mov    rdx,QWORD PTR [rbp-0x30]
    1627:	48 8b 75 d8          	mov    rsi,QWORD PTR [rbp-0x28]
    162b:	48 8d 45 f4          	lea    rax,[rbp-0xc]
    162f:	48 8d 7d f8          	lea    rdi,[rbp-0x8]
    1633:	57                   	push   rdi
    1634:	48 8d 7d ec          	lea    rdi,[rbp-0x14]
    1638:	57                   	push   rdi
    1639:	48 89 c7             	mov    rdi,rax
    163c:	e8 42 00 00 00       	call   1683 <__cxa_finalize@plt+0x3b3>
    1641:	48 83 c4 10          	add    rsp,0x10
    1645:	84 c0                	test   al,al
    1647:	74 1f                	je     1668 <__cxa_finalize@plt+0x398>
    1649:	8b 4d ec             	mov    ecx,DWORD PTR [rbp-0x14]
    164c:	8b 55 f0             	mov    edx,DWORD PTR [rbp-0x10]
    164f:	48 8d 7d f8          	lea    rdi,[rbp-0x8]
    1653:	48 8b 75 c8          	mov    rsi,QWORD PTR [rbp-0x38]
    1657:	48 8b 45 d0          	mov    rax,QWORD PTR [rbp-0x30]
    165b:	49 89 f8             	mov    r8,rdi
    165e:	48 89 c7             	mov    rdi,rax
    1661:	e8 d2 02 00 00       	call   1938 <__cxa_finalize@plt+0x668>
    1666:	eb 80                	jmp    15e8 <__cxa_finalize@plt+0x318>
    1668:	48 8b 55 c8          	mov    rdx,QWORD PTR [rbp-0x38]
    166c:	48 8b 45 d0          	mov    rax,QWORD PTR [rbp-0x30]
    1670:	48 89 d6             	mov    rsi,rdx
    1673:	48 89 c7             	mov    rdi,rax
    1676:	e8 60 19 00 00       	call   2fdb <__cxa_finalize@plt+0x1d0b>
    167b:	e9 68 ff ff ff       	jmp    15e8 <__cxa_finalize@plt+0x318>
    1680:	90                   	nop
    1681:	c9                   	leave  
    1682:	c3                   	ret    
    1683:	55                   	push   rbp
    1684:	48 89 e5             	mov    rbp,rsp
    1687:	48 83 ec 40          	sub    rsp,0x40
    168b:	48 89 7d e8          	mov    QWORD PTR [rbp-0x18],rdi
    168f:	48 89 75 e0          	mov    QWORD PTR [rbp-0x20],rsi
    1693:	48 89 55 d8          	mov    QWORD PTR [rbp-0x28],rdx
    1697:	48 89 4d d0          	mov    QWORD PTR [rbp-0x30],rcx
    169b:	4c 89 45 c8          	mov    QWORD PTR [rbp-0x38],r8
    169f:	4c 89 4d c0          	mov    QWORD PTR [rbp-0x40],r9
    16a3:	48 8b 45 e8          	mov    rax,QWORD PTR [rbp-0x18]
    16a7:	8b 00                	mov    eax,DWORD PTR [rax]
    16a9:	85 c0                	test   eax,eax
    16ab:	75 14                	jne    16c1 <__cxa_finalize@plt+0x3f1>
    16ad:	c7 05 09 4b 00 00 00 	mov    DWORD PTR [rip+0x4b09],0x0        # 61c0 <stderr@GLIBC_2.2.5+0x20>
    16b4:	00 00 00 
    16b7:	48 8b 45 e8          	mov    rax,QWORD PTR [rbp-0x18]
    16bb:	c7 00 01 00 00 00    	mov    DWORD PTR [rax],0x1
    16c1:	48 8b 45 e8          	mov    rax,QWORD PTR [rbp-0x18]
    16c5:	8b 00                	mov    eax,DWORD PTR [rax]
    16c7:	83 f8 01             	cmp    eax,0x1
    16ca:	75 46                	jne    1712 <__cxa_finalize@plt+0x442>
    16cc:	48 8b 4d 18          	mov    rcx,QWORD PTR [rbp+0x18]
    16d0:	48 8b 55 c8          	mov    rdx,QWORD PTR [rbp-0x38]
    16d4:	48 8b 75 d8          	mov    rsi,QWORD PTR [rbp-0x28]
    16d8:	48 8b 45 e0          	mov    rax,QWORD PTR [rbp-0x20]
    16dc:	49 89 c8             	mov    r8,rcx
    16df:	48 8d 0d fa 4a 00 00 	lea    rcx,[rip+0x4afa]        # 61e0 <stderr@GLIBC_2.2.5+0x40>
    16e6:	48 89 c7             	mov    rdi,rax
    16e9:	e8 76 0c 00 00       	call   2364 <__cxa_finalize@plt+0x1094>
    16ee:	89 05 6c 4b 00 00    	mov    DWORD PTR [rip+0x4b6c],eax        # 6260 <stderr@GLIBC_2.2.5+0xc0>
    16f4:	8b 05 66 4b 00 00    	mov    eax,DWORD PTR [rip+0x4b66]        # 6260 <stderr@GLIBC_2.2.5+0xc0>
    16fa:	85 c0                	test   eax,eax
    16fc:	75 0a                	jne    1708 <__cxa_finalize@plt+0x438>
    16fe:	b8 00 00 00 00       	mov    eax,0x0
    1703:	e9 2e 02 00 00       	jmp    1936 <__cxa_finalize@plt+0x666>
    1708:	48 8b 45 e8          	mov    rax,QWORD PTR [rbp-0x18]
    170c:	c7 00 02 00 00 00    	mov    DWORD PTR [rax],0x2
    1712:	8b 05 a8 4a 00 00    	mov    eax,DWORD PTR [rip+0x4aa8]        # 61c0 <stderr@GLIBC_2.2.5+0x20>
    1718:	8d 50 01             	lea    edx,[rax+0x1]
    171b:	89 15 9f 4a 00 00    	mov    DWORD PTR [rip+0x4a9f],edx        # 61c0 <stderr@GLIBC_2.2.5+0x20>
    1721:	89 45 fc             	mov    DWORD PTR [rbp-0x4],eax
    1724:	8b 05 96 4a 00 00    	mov    eax,DWORD PTR [rip+0x4a96]        # 61c0 <stderr@GLIBC_2.2.5+0x20>
    172a:	48 8b 55 d8          	mov    rdx,QWORD PTR [rbp-0x28]
    172e:	8b 4a 04             	mov    ecx,DWORD PTR [rdx+0x4]
    1731:	ba 00 00 00 00       	mov    edx,0x0
    1736:	f7 f1                	div    ecx
    1738:	89 d0                	mov    eax,edx
    173a:	89 05 80 4a 00 00    	mov    DWORD PTR [rip+0x4a80],eax        # 61c0 <stderr@GLIBC_2.2.5+0x20>
    1740:	48 8b 4d d8          	mov    rcx,QWORD PTR [rbp-0x28]
    1744:	8b 55 fc             	mov    edx,DWORD PTR [rbp-0x4]
    1747:	48 89 d0             	mov    rax,rdx
    174a:	48 c1 e0 02          	shl    rax,0x2
    174e:	48 01 d0             	add    rax,rdx
    1751:	48 c1 e0 03          	shl    rax,0x3
    1755:	48 01 c8             	add    rax,rcx
    1758:	48 83 c0 2c          	add    rax,0x2c
    175c:	0f b6 00             	movzx  eax,BYTE PTR [rax]
    175f:	83 f0 01             	xor    eax,0x1
    1762:	84 c0                	test   al,al
    1764:	74 ac                	je     1712 <__cxa_finalize@plt+0x442>
    1766:	8b 45 fc             	mov    eax,DWORD PTR [rbp-0x4]
    1769:	01 c0                	add    eax,eax
    176b:	89 c0                	mov    eax,eax
    176d:	48 8d 14 85 00 00 00 	lea    rdx,[rax*4+0x0]
    1774:	00 
    1775:	48 8b 45 c8          	mov    rax,QWORD PTR [rbp-0x38]
    1779:	48 01 d0             	add    rax,rdx
    177c:	8b 00                	mov    eax,DWORD PTR [rax]
    177e:	8d 50 3f             	lea    edx,[rax+0x3f]
    1781:	85 c0                	test   eax,eax
    1783:	0f 48 c2             	cmovs  eax,edx
    1786:	c1 f8 06             	sar    eax,0x6
    1789:	48 98                	cdqe   
    178b:	48 8d 14 c5 00 00 00 	lea    rdx,[rax*8+0x0]
    1792:	00 
    1793:	48 8d 05 46 4a 00 00 	lea    rax,[rip+0x4a46]        # 61e0 <stderr@GLIBC_2.2.5+0x40>
    179a:	48 8b 34 02          	mov    rsi,QWORD PTR [rdx+rax*1]
    179e:	8b 45 fc             	mov    eax,DWORD PTR [rbp-0x4]
    17a1:	01 c0                	add    eax,eax
    17a3:	89 c0                	mov    eax,eax
    17a5:	48 8d 14 85 00 00 00 	lea    rdx,[rax*4+0x0]
    17ac:	00 
    17ad:	48 8b 45 c8          	mov    rax,QWORD PTR [rbp-0x38]
    17b1:	48 01 d0             	add    rax,rdx
    17b4:	8b 00                	mov    eax,DWORD PTR [rax]
    17b6:	83 e0 3f             	and    eax,0x3f
    17b9:	ba 01 00 00 00       	mov    edx,0x1
    17be:	89 c1                	mov    ecx,eax
    17c0:	48 d3 e2             	shl    rdx,cl
    17c3:	48 89 d0             	mov    rax,rdx
    17c6:	48 21 f0             	and    rax,rsi
    17c9:	48 85 c0             	test   rax,rax
    17cc:	0f 84 40 ff ff ff    	je     1712 <__cxa_finalize@plt+0x442>
    17d2:	8b 45 fc             	mov    eax,DWORD PTR [rbp-0x4]
    17d5:	01 c0                	add    eax,eax
    17d7:	89 c0                	mov    eax,eax
    17d9:	48 8d 14 85 00 00 00 	lea    rdx,[rax*4+0x0]
    17e0:	00 
    17e1:	48 8b 45 c8          	mov    rax,QWORD PTR [rbp-0x38]
    17e5:	48 01 d0             	add    rax,rdx
    17e8:	8b 00                	mov    eax,DWORD PTR [rax]
    17ea:	8d 50 3f             	lea    edx,[rax+0x3f]
    17ed:	85 c0                	test   eax,eax
    17ef:	0f 48 c2             	cmovs  eax,edx
    17f2:	c1 f8 06             	sar    eax,0x6
    17f5:	48 98                	cdqe   
    17f7:	48 8d 14 c5 00 00 00 	lea    rdx,[rax*8+0x0]
    17fe:	00 
    17ff:	48 8d 05 da 49 00 00 	lea    rax,[rip+0x49da]        # 61e0 <stderr@GLIBC_2.2.5+0x40>
    1806:	48 8b 34 02          	mov    rsi,QWORD PTR [rdx+rax*1]
    180a:	8b 45 fc             	mov    eax,DWORD PTR [rbp-0x4]
    180d:	01 c0                	add    eax,eax
    180f:	89 c0                	mov    eax,eax
    1811:	48 8d 14 85 00 00 00 	lea    rdx,[rax*4+0x0]
    1818:	00 
    1819:	48 8b 45 c8          	mov    rax,QWORD PTR [rbp-0x38]
    181d:	48 01 d0             	add    rax,rdx
    1820:	8b 00                	mov    eax,DWORD PTR [rax]
    1822:	83 e0 3f             	and    eax,0x3f
    1825:	ba 01 00 00 00       	mov    edx,0x1
    182a:	89 c1                	mov    ecx,eax
    182c:	48 d3 e2             	shl    rdx,cl
    182f:	48 89 d0             	mov    rax,rdx
    1832:	48 f7 d0             	not    rax
    1835:	48 89 c1             	mov    rcx,rax
    1838:	8b 45 fc             	mov    eax,DWORD PTR [rbp-0x4]
    183b:	01 c0                	add    eax,eax
    183d:	89 c0                	mov    eax,eax
    183f:	48 8d 14 85 00 00 00 	lea    rdx,[rax*4+0x0]
    1846:	00 
    1847:	48 8b 45 c8          	mov    rax,QWORD PTR [rbp-0x38]
    184b:	48 01 d0             	add    rax,rdx
    184e:	8b 00                	mov    eax,DWORD PTR [rax]
    1850:	8d 50 3f             	lea    edx,[rax+0x3f]
    1853:	85 c0                	test   eax,eax
    1855:	0f 48 c2             	cmovs  eax,edx
    1858:	c1 f8 06             	sar    eax,0x6
    185b:	48 21 f1             	and    rcx,rsi
    185e:	48 98                	cdqe   
    1860:	48 8d 14 c5 00 00 00 	lea    rdx,[rax*8+0x0]
    1867:	00 
    1868:	48 8d 05 71 49 00 00 	lea    rax,[rip+0x4971]        # 61e0 <stderr@GLIBC_2.2.5+0x40>
    186f:	48 89 0c 02          	mov    QWORD PTR [rdx+rax*1],rcx
    1873:	8b 05 e7 49 00 00    	mov    eax,DWORD PTR [rip+0x49e7]        # 6260 <stderr@GLIBC_2.2.5+0xc0>
    1879:	83 e8 01             	sub    eax,0x1
    187c:	89 05 de 49 00 00    	mov    DWORD PTR [rip+0x49de],eax        # 6260 <stderr@GLIBC_2.2.5+0xc0>
    1882:	8b 05 d8 49 00 00    	mov    eax,DWORD PTR [rip+0x49d8]        # 6260 <stderr@GLIBC_2.2.5+0xc0>
    1888:	85 c0                	test   eax,eax
    188a:	75 0a                	jne    1896 <__cxa_finalize@plt+0x5c6>
    188c:	48 8b 45 e8          	mov    rax,QWORD PTR [rbp-0x18]
    1890:	c7 00 01 00 00 00    	mov    DWORD PTR [rax],0x1
    1896:	48 8b 4d 10          	mov    rcx,QWORD PTR [rbp+0x10]
    189a:	48 8b 55 c0          	mov    rdx,QWORD PTR [rbp-0x40]
    189e:	8b 75 fc             	mov    esi,DWORD PTR [rbp-0x4]
    18a1:	48 8b 45 c8          	mov    rax,QWORD PTR [rbp-0x38]
    18a5:	48 89 c7             	mov    rdi,rax
    18a8:	e8 be 0b 00 00       	call   246b <__cxa_finalize@plt+0x119b>
    18ad:	84 c0                	test   al,al
    18af:	74 07                	je     18b8 <__cxa_finalize@plt+0x5e8>
    18b1:	b8 01 00 00 00       	mov    eax,0x1
    18b6:	eb 7e                	jmp    1936 <__cxa_finalize@plt+0x666>
    18b8:	48 8b 45 d0          	mov    rax,QWORD PTR [rbp-0x30]
    18bc:	48 89 c7             	mov    rdi,rax
    18bf:	e8 c4 1a 00 00       	call   3388 <__cxa_finalize@plt+0x20b8>
    18c4:	48 8b 4d d8          	mov    rcx,QWORD PTR [rbp-0x28]
    18c8:	8b 55 fc             	mov    edx,DWORD PTR [rbp-0x4]
    18cb:	48 89 d0             	mov    rax,rdx
    18ce:	48 c1 e0 02          	shl    rax,0x2
    18d2:	48 01 d0             	add    rax,rdx
    18d5:	48 c1 e0 03          	shl    rax,0x3
    18d9:	48 01 c8             	add    rax,rcx
    18dc:	48 83 c0 2c          	add    rax,0x2c
    18e0:	c6 00 01             	mov    BYTE PTR [rax],0x1
    18e3:	48 8b 45 d0          	mov    rax,QWORD PTR [rbp-0x30]
    18e7:	48 89 c7             	mov    rdi,rax
    18ea:	e8 d8 1a 00 00       	call   33c7 <__cxa_finalize@plt+0x20f7>
    18ef:	48 8b 45 d8          	mov    rax,QWORD PTR [rbp-0x28]
    18f3:	48 89 c7             	mov    rdi,rax
    18f6:	e8 2f 16 00 00       	call   2f2a <__cxa_finalize@plt+0x1c5a>
    18fb:	84 c0                	test   al,al
    18fd:	74 07                	je     1906 <__cxa_finalize@plt+0x636>
    18ff:	b8 00 00 00 00       	mov    eax,0x0
    1904:	eb 30                	jmp    1936 <__cxa_finalize@plt+0x666>
    1906:	4c 8b 45 c0          	mov    r8,QWORD PTR [rbp-0x40]
    190a:	48 8b 7d c8          	mov    rdi,QWORD PTR [rbp-0x38]
    190e:	48 8b 4d d0          	mov    rcx,QWORD PTR [rbp-0x30]
    1912:	48 8b 55 d8          	mov    rdx,QWORD PTR [rbp-0x28]
    1916:	48 8b 75 e0          	mov    rsi,QWORD PTR [rbp-0x20]
    191a:	48 8b 45 e8          	mov    rax,QWORD PTR [rbp-0x18]
    191e:	ff 75 18             	push   QWORD PTR [rbp+0x18]
    1921:	ff 75 10             	push   QWORD PTR [rbp+0x10]
    1924:	4d 89 c1             	mov    r9,r8
    1927:	49 89 f8             	mov    r8,rdi
    192a:	48 89 c7             	mov    rdi,rax
    192d:	e8 51 fd ff ff       	call   1683 <__cxa_finalize@plt+0x3b3>
    1932:	48 83 c4 10          	add    rsp,0x10
    1936:	c9                   	leave  
    1937:	c3                   	ret    
    1938:	55                   	push   rbp
    1939:	48 89 e5             	mov    rbp,rsp
    193c:	48 83 ec 30          	sub    rsp,0x30
    1940:	48 89 7d e8          	mov    QWORD PTR [rbp-0x18],rdi
    1944:	48 89 75 e0          	mov    QWORD PTR [rbp-0x20],rsi
    1948:	89 55 dc             	mov    DWORD PTR [rbp-0x24],edx
    194b:	89 4d d8             	mov    DWORD PTR [rbp-0x28],ecx
    194e:	4c 89 45 d0          	mov    QWORD PTR [rbp-0x30],r8
    1952:	48 8d 4d fc          	lea    rcx,[rbp-0x4]
    1956:	8b 55 d8             	mov    edx,DWORD PTR [rbp-0x28]
    1959:	8b 75 dc             	mov    esi,DWORD PTR [rbp-0x24]
    195c:	48 8b 45 e8          	mov    rax,QWORD PTR [rbp-0x18]
    1960:	48 89 c7             	mov    rdi,rax
    1963:	e8 f0 10 00 00       	call   2a58 <__cxa_finalize@plt+0x1788>
    1968:	84 c0                	test   al,al
    196a:	0f 84 a0 00 00 00    	je     1a10 <__cxa_finalize@plt+0x740>
    1970:	48 8b 45 e0          	mov    rax,QWORD PTR [rbp-0x20]
    1974:	48 89 c7             	mov    rdi,rax
    1977:	e8 0c 1a 00 00       	call   3388 <__cxa_finalize@plt+0x20b8>
    197c:	8b 55 fc             	mov    edx,DWORD PTR [rbp-0x4]
    197f:	8b 4d dc             	mov    ecx,DWORD PTR [rbp-0x24]
    1982:	48 8b 45 e8          	mov    rax,QWORD PTR [rbp-0x18]
    1986:	89 ce                	mov    esi,ecx
    1988:	48 89 c7             	mov    rdi,rax
    198b:	e8 99 11 00 00       	call   2b29 <__cxa_finalize@plt+0x1859>
    1990:	48 8b 4d e8          	mov    rcx,QWORD PTR [rbp-0x18]
    1994:	8b 55 dc             	mov    edx,DWORD PTR [rbp-0x24]
    1997:	48 89 d0             	mov    rax,rdx
    199a:	48 c1 e0 02          	shl    rax,0x2
    199e:	48 01 d0             	add    rax,rdx
    19a1:	48 c1 e0 03          	shl    rax,0x3
    19a5:	48 01 c8             	add    rax,rcx
    19a8:	48 83 c0 20          	add    rax,0x20
    19ac:	8b 00                	mov    eax,DWORD PTR [rax]
    19ae:	8d 48 01             	lea    ecx,[rax+0x1]
    19b1:	48 8b 75 e8          	mov    rsi,QWORD PTR [rbp-0x18]
    19b5:	8b 55 dc             	mov    edx,DWORD PTR [rbp-0x24]
    19b8:	48 89 d0             	mov    rax,rdx
    19bb:	48 c1 e0 02          	shl    rax,0x2
    19bf:	48 01 d0             	add    rax,rdx
    19c2:	48 c1 e0 03          	shl    rax,0x3
    19c6:	48 01 f0             	add    rax,rsi
    19c9:	48 83 c0 20          	add    rax,0x20
    19cd:	89 08                	mov    DWORD PTR [rax],ecx
    19cf:	48 8b 45 e8          	mov    rax,QWORD PTR [rbp-0x18]
    19d3:	48 89 c7             	mov    rdi,rax
    19d6:	e8 16 12 00 00       	call   2bf1 <__cxa_finalize@plt+0x1921>
    19db:	48 8b 45 e8          	mov    rax,QWORD PTR [rbp-0x18]
    19df:	48 89 c7             	mov    rdi,rax
    19e2:	e8 43 15 00 00       	call   2f2a <__cxa_finalize@plt+0x1c5a>
    19e7:	48 8b 55 e8          	mov    rdx,QWORD PTR [rbp-0x18]
    19eb:	88 82 70 01 00 00    	mov    BYTE PTR [rdx+0x170],al
    19f1:	48 8b 45 e0          	mov    rax,QWORD PTR [rbp-0x20]
    19f5:	48 89 c7             	mov    rdi,rax
    19f8:	e8 ca 19 00 00       	call   33c7 <__cxa_finalize@plt+0x20f7>
    19fd:	bf 00 00 00 00       	mov    edi,0x0
    1a02:	e8 89 f7 ff ff       	call   1190 <time@plt>
    1a07:	48 8b 55 d0          	mov    rdx,QWORD PTR [rbp-0x30]
    1a0b:	48 89 02             	mov    QWORD PTR [rdx],rax
    1a0e:	eb 57                	jmp    1a67 <__cxa_finalize@plt+0x797>
    1a10:	48 8b 45 e0          	mov    rax,QWORD PTR [rbp-0x20]
    1a14:	48 89 c7             	mov    rdi,rax
    1a17:	e8 6c 19 00 00       	call   3388 <__cxa_finalize@plt+0x20b8>
    1a1c:	48 8b 4d e8          	mov    rcx,QWORD PTR [rbp-0x18]
    1a20:	8b 55 dc             	mov    edx,DWORD PTR [rbp-0x24]
    1a23:	48 89 d0             	mov    rax,rdx
    1a26:	48 c1 e0 02          	shl    rax,0x2
    1a2a:	48 01 d0             	add    rax,rdx
    1a2d:	48 c1 e0 03          	shl    rax,0x3
    1a31:	48 01 c8             	add    rax,rcx
    1a34:	48 83 c0 1c          	add    rax,0x1c
    1a38:	8b 00                	mov    eax,DWORD PTR [rax]
    1a3a:	8d 48 01             	lea    ecx,[rax+0x1]
    1a3d:	48 8b 75 e8          	mov    rsi,QWORD PTR [rbp-0x18]
    1a41:	8b 55 dc             	mov    edx,DWORD PTR [rbp-0x24]
    1a44:	48 89 d0             	mov    rax,rdx
    1a47:	48 c1 e0 02          	shl    rax,0x2
    1a4b:	48 01 d0             	add    rax,rdx
    1a4e:	48 c1 e0 03          	shl    rax,0x3
    1a52:	48 01 f0             	add    rax,rsi
    1a55:	48 83 c0 1c          	add    rax,0x1c
    1a59:	89 08                	mov    DWORD PTR [rax],ecx
    1a5b:	48 8b 45 e0          	mov    rax,QWORD PTR [rbp-0x20]
    1a5f:	48 89 c7             	mov    rdi,rax
    1a62:	e8 60 19 00 00       	call   33c7 <__cxa_finalize@plt+0x20f7>
    1a67:	90                   	nop
    1a68:	c9                   	leave  
    1a69:	c3                   	ret    
    1a6a:	55                   	push   rbp
    1a6b:	48 89 e5             	mov    rbp,rsp
    1a6e:	48 83 ec 10          	sub    rsp,0x10
    1a72:	48 89 7d f8          	mov    QWORD PTR [rbp-0x8],rdi
    1a76:	48 89 75 f0          	mov    QWORD PTR [rbp-0x10],rsi
    1a7a:	48 8b 45 f0          	mov    rax,QWORD PTR [rbp-0x10]
    1a7e:	48 89 c7             	mov    rdi,rax
    1a81:	e8 8a f6 ff ff       	call   1110 <sem_post@plt>
    1a86:	48 8b 45 f0          	mov    rax,QWORD PTR [rbp-0x10]
    1a8a:	48 83 c0 20          	add    rax,0x20
    1a8e:	48 89 c7             	mov    rdi,rax
    1a91:	e8 aa f5 ff ff       	call   1040 <sem_wait@plt>
    1a96:	48 8b 45 f8          	mov    rax,QWORD PTR [rbp-0x8]
    1a9a:	8b 40 04             	mov    eax,DWORD PTR [rax+0x4]
    1a9d:	69 c0 e8 03 00 00    	imul   eax,eax,0x3e8
    1aa3:	89 c7                	mov    edi,eax
    1aa5:	e8 16 f8 ff ff       	call   12c0 <usleep@plt>
    1aaa:	90                   	nop
    1aab:	c9                   	leave  
    1aac:	c3                   	ret    
    1aad:	55                   	push   rbp
    1aae:	48 89 e5             	mov    rbp,rsp
    1ab1:	48 83 ec 20          	sub    rsp,0x20
    1ab5:	89 7d ec             	mov    DWORD PTR [rbp-0x14],edi
    1ab8:	48 8d 4d fc          	lea    rcx,[rbp-0x4]
    1abc:	8b 45 ec             	mov    eax,DWORD PTR [rbp-0x14]
    1abf:	ba 00 00 00 00       	mov    edx,0x0
    1ac4:	48 89 ce             	mov    rsi,rcx
    1ac7:	89 c7                	mov    edi,eax
    1ac9:	e8 02 f7 ff ff       	call   11d0 <waitpid@plt>
    1ace:	83 f8 ff             	cmp    eax,0xffffffff
    1ad1:	75 19                	jne    1aec <__cxa_finalize@plt+0x81c>
    1ad3:	48 8d 05 34 25 00 00 	lea    rax,[rip+0x2534]        # 400e <__cxa_finalize@plt+0x2d3e>
    1ada:	48 89 c7             	mov    rdi,rax
    1add:	e8 fe f6 ff ff       	call   11e0 <perror@plt>
    1ae2:	bf 01 00 00 00       	mov    edi,0x1
    1ae7:	e8 34 f7 ff ff       	call   1220 <exit@plt>
    1aec:	8b 45 fc             	mov    eax,DWORD PTR [rbp-0x4]
    1aef:	89 c6                	mov    esi,eax
    1af1:	48 8d 05 1e 25 00 00 	lea    rax,[rip+0x251e]        # 4016 <__cxa_finalize@plt+0x2d46>
    1af8:	48 89 c7             	mov    rdi,rax
    1afb:	b8 00 00 00 00       	mov    eax,0x0
    1b00:	e8 9b f5 ff ff       	call   10a0 <printf@plt>
    1b05:	90                   	nop
    1b06:	c9                   	leave  
    1b07:	c3                   	ret    
    1b08:	55                   	push   rbp
    1b09:	48 89 e5             	mov    rbp,rsp
    1b0c:	48 83 ec 30          	sub    rsp,0x30
    1b10:	48 89 7d d8          	mov    QWORD PTR [rbp-0x28],rdi
    1b14:	c7 45 fc 00 00 00 00 	mov    DWORD PTR [rbp-0x4],0x0
    1b1b:	e9 dd 00 00 00       	jmp    1bfd <__cxa_finalize@plt+0x92d>
    1b20:	48 8d 45 e4          	lea    rax,[rbp-0x1c]
    1b24:	48 89 c7             	mov    rdi,rax
    1b27:	e8 54 f7 ff ff       	call   1280 <wait@plt>
    1b2c:	89 45 f4             	mov    DWORD PTR [rbp-0xc],eax
    1b2f:	83 7d f4 ff          	cmp    DWORD PTR [rbp-0xc],0xffffffff
    1b33:	75 19                	jne    1b4e <__cxa_finalize@plt+0x87e>
    1b35:	48 8d 05 ec 24 00 00 	lea    rax,[rip+0x24ec]        # 4028 <__cxa_finalize@plt+0x2d58>
    1b3c:	48 89 c7             	mov    rdi,rax
    1b3f:	e8 9c f6 ff ff       	call   11e0 <perror@plt>
    1b44:	bf 01 00 00 00       	mov    edi,0x1
    1b49:	e8 d2 f6 ff ff       	call   1220 <exit@plt>
    1b4e:	c7 45 f8 00 00 00 00 	mov    DWORD PTR [rbp-0x8],0x0
    1b55:	e9 8f 00 00 00       	jmp    1be9 <__cxa_finalize@plt+0x919>
    1b5a:	48 8b 4d d8          	mov    rcx,QWORD PTR [rbp-0x28]
    1b5e:	8b 55 f8             	mov    edx,DWORD PTR [rbp-0x8]
    1b61:	48 89 d0             	mov    rax,rdx
    1b64:	48 c1 e0 02          	shl    rax,0x2
    1b68:	48 01 d0             	add    rax,rdx
    1b6b:	48 c1 e0 03          	shl    rax,0x3
    1b6f:	48 01 c8             	add    rax,rcx
    1b72:	48 83 c0 28          	add    rax,0x28
    1b76:	8b 00                	mov    eax,DWORD PTR [rax]
    1b78:	39 45 f4             	cmp    DWORD PTR [rbp-0xc],eax
    1b7b:	75 68                	jne    1be5 <__cxa_finalize@plt+0x915>
    1b7d:	8b 55 f8             	mov    edx,DWORD PTR [rbp-0x8]
    1b80:	48 89 d0             	mov    rax,rdx
    1b83:	48 c1 e0 02          	shl    rax,0x2
    1b87:	48 01 d0             	add    rax,rdx
    1b8a:	48 c1 e0 03          	shl    rax,0x3
    1b8e:	48 8b 55 d8          	mov    rdx,QWORD PTR [rbp-0x28]
    1b92:	48 01 d0             	add    rax,rdx
    1b95:	48 83 c0 08          	add    rax,0x8
    1b99:	48 89 45 e8          	mov    QWORD PTR [rbp-0x18],rax
    1b9d:	48 8b 45 e8          	mov    rax,QWORD PTR [rbp-0x18]
    1ba1:	8b 70 14             	mov    esi,DWORD PTR [rax+0x14]
    1ba4:	48 8b 45 e8          	mov    rax,QWORD PTR [rbp-0x18]
    1ba8:	44 8b 40 18          	mov    r8d,DWORD PTR [rax+0x18]
    1bac:	48 8b 45 e8          	mov    rax,QWORD PTR [rbp-0x18]
    1bb0:	8b 78 10             	mov    edi,DWORD PTR [rax+0x10]
    1bb3:	8b 4d e4             	mov    ecx,DWORD PTR [rbp-0x1c]
    1bb6:	48 8b 45 e8          	mov    rax,QWORD PTR [rbp-0x18]
    1bba:	8b 55 f8             	mov    edx,DWORD PTR [rbp-0x8]
    1bbd:	48 83 ec 08          	sub    rsp,0x8
    1bc1:	56                   	push   rsi
    1bc2:	45 89 c1             	mov    r9d,r8d
    1bc5:	41 89 f8             	mov    r8d,edi
    1bc8:	48 89 c6             	mov    rsi,rax
    1bcb:	48 8d 05 5e 24 00 00 	lea    rax,[rip+0x245e]        # 4030 <__cxa_finalize@plt+0x2d60>
    1bd2:	48 89 c7             	mov    rdi,rax
    1bd5:	b8 00 00 00 00       	mov    eax,0x0
    1bda:	e8 c1 f4 ff ff       	call   10a0 <printf@plt>
    1bdf:	48 83 c4 10          	add    rsp,0x10
    1be3:	eb 14                	jmp    1bf9 <__cxa_finalize@plt+0x929>
    1be5:	83 45 f8 01          	add    DWORD PTR [rbp-0x8],0x1
    1be9:	48 8b 45 d8          	mov    rax,QWORD PTR [rbp-0x28]
    1bed:	8b 40 04             	mov    eax,DWORD PTR [rax+0x4]
    1bf0:	39 45 f8             	cmp    DWORD PTR [rbp-0x8],eax
    1bf3:	0f 82 61 ff ff ff    	jb     1b5a <__cxa_finalize@plt+0x88a>
    1bf9:	83 45 fc 01          	add    DWORD PTR [rbp-0x4],0x1
    1bfd:	48 8b 45 d8          	mov    rax,QWORD PTR [rbp-0x28]
    1c01:	8b 40 04             	mov    eax,DWORD PTR [rax+0x4]
    1c04:	39 45 fc             	cmp    DWORD PTR [rbp-0x4],eax
    1c07:	0f 82 13 ff ff ff    	jb     1b20 <__cxa_finalize@plt+0x850>
    1c0d:	90                   	nop
    1c0e:	90                   	nop
    1c0f:	c9                   	leave  
    1c10:	c3                   	ret    
    1c11:	55                   	push   rbp
    1c12:	48 89 e5             	mov    rbp,rsp
    1c15:	48 83 c4 80          	add    rsp,0xffffffffffffff80
    1c19:	48 89 7d 88          	mov    QWORD PTR [rbp-0x78],rdi
    1c1d:	89 f1                	mov    ecx,esi
    1c1f:	89 d0                	mov    eax,edx
    1c21:	89 ca                	mov    edx,ecx
    1c23:	66 89 55 84          	mov    WORD PTR [rbp-0x7c],dx
    1c27:	66 89 45 80          	mov    WORD PTR [rbp-0x80],ax
    1c2b:	0f b7 55 84          	movzx  edx,WORD PTR [rbp-0x7c]
    1c2f:	48 8d 45 e0          	lea    rax,[rbp-0x20]
    1c33:	89 d1                	mov    ecx,edx
    1c35:	48 8d 15 2d 24 00 00 	lea    rdx,[rip+0x242d]        # 4069 <__cxa_finalize@plt+0x2d99>
    1c3c:	be 14 00 00 00       	mov    esi,0x14
    1c41:	48 89 c7             	mov    rdi,rax
    1c44:	b8 00 00 00 00       	mov    eax,0x0
    1c49:	e8 72 f4 ff ff       	call   10c0 <snprintf@plt>
    1c4e:	0f b7 55 80          	movzx  edx,WORD PTR [rbp-0x80]
    1c52:	48 8d 45 c0          	lea    rax,[rbp-0x40]
    1c56:	89 d1                	mov    ecx,edx
    1c58:	48 8d 15 0a 24 00 00 	lea    rdx,[rip+0x240a]        # 4069 <__cxa_finalize@plt+0x2d99>
    1c5f:	be 14 00 00 00       	mov    esi,0x14
    1c64:	48 89 c7             	mov    rdi,rax
    1c67:	b8 00 00 00 00       	mov    eax,0x0
    1c6c:	e8 4f f4 ff ff       	call   10c0 <snprintf@plt>
    1c71:	48 8b 45 88          	mov    rax,QWORD PTR [rbp-0x78]
    1c75:	48 89 45 a0          	mov    QWORD PTR [rbp-0x60],rax
    1c79:	48 8d 45 e0          	lea    rax,[rbp-0x20]
    1c7d:	48 89 45 a8          	mov    QWORD PTR [rbp-0x58],rax
    1c81:	48 8d 45 c0          	lea    rax,[rbp-0x40]
    1c85:	48 89 45 b0          	mov    QWORD PTR [rbp-0x50],rax
    1c89:	48 c7 45 b8 00 00 00 	mov    QWORD PTR [rbp-0x48],0x0
    1c90:	00 
    1c91:	48 c7 45 98 00 00 00 	mov    QWORD PTR [rbp-0x68],0x0
    1c98:	00 
    1c99:	48 8d 55 98          	lea    rdx,[rbp-0x68]
    1c9d:	48 8d 4d a0          	lea    rcx,[rbp-0x60]
    1ca1:	48 8b 45 88          	mov    rax,QWORD PTR [rbp-0x78]
    1ca5:	48 89 ce             	mov    rsi,rcx
    1ca8:	48 89 c7             	mov    rdi,rax
    1cab:	e8 a0 f4 ff ff       	call   1150 <execve@plt>
    1cb0:	83 f8 ff             	cmp    eax,0xffffffff
    1cb3:	75 19                	jne    1cce <__cxa_finalize@plt+0x9fe>
    1cb5:	48 8d 05 b0 23 00 00 	lea    rax,[rip+0x23b0]        # 406c <__cxa_finalize@plt+0x2d9c>
    1cbc:	48 89 c7             	mov    rdi,rax
    1cbf:	e8 1c f5 ff ff       	call   11e0 <perror@plt>
    1cc4:	bf 01 00 00 00       	mov    edi,0x1
    1cc9:	e8 52 f5 ff ff       	call   1220 <exit@plt>
    1cce:	90                   	nop
    1ccf:	c9                   	leave  
    1cd0:	c3                   	ret    
    1cd1:	55                   	push   rbp
    1cd2:	48 89 e5             	mov    rbp,rsp
    1cd5:	48 83 ec 30          	sub    rsp,0x30
    1cd9:	48 89 7d e8          	mov    QWORD PTR [rbp-0x18],rdi
    1cdd:	48 89 75 e0          	mov    QWORD PTR [rbp-0x20],rsi
    1ce1:	48 89 55 d8          	mov    QWORD PTR [rbp-0x28],rdx
    1ce5:	c7 45 fc 00 00 00 00 	mov    DWORD PTR [rbp-0x4],0x0
    1cec:	e9 34 01 00 00       	jmp    1e25 <__cxa_finalize@plt+0xb55>
    1cf1:	e8 aa f5 ff ff       	call   12a0 <fork@plt>
    1cf6:	89 45 f8             	mov    DWORD PTR [rbp-0x8],eax
    1cf9:	83 7d f8 ff          	cmp    DWORD PTR [rbp-0x8],0xffffffff
    1cfd:	74 0b                	je     1d0a <__cxa_finalize@plt+0xa3a>
    1cff:	83 7d f8 00          	cmp    DWORD PTR [rbp-0x8],0x0
    1d03:	74 1e                	je     1d23 <__cxa_finalize@plt+0xa53>
    1d05:	e9 f6 00 00 00       	jmp    1e00 <__cxa_finalize@plt+0xb30>
    1d0a:	48 8d 05 62 23 00 00 	lea    rax,[rip+0x2362]        # 4073 <__cxa_finalize@plt+0x2da3>
    1d11:	48 89 c7             	mov    rdi,rax
    1d14:	e8 c7 f4 ff ff       	call   11e0 <perror@plt>
    1d19:	bf 01 00 00 00       	mov    edi,0x1
    1d1e:	e8 fd f4 ff ff       	call   1220 <exit@plt>
    1d23:	bf e8 03 00 00       	mov    edi,0x3e8
    1d28:	e8 23 f5 ff ff       	call   1250 <setuid@plt>
    1d2d:	83 f8 ff             	cmp    eax,0xffffffff
    1d30:	75 19                	jne    1d4b <__cxa_finalize@plt+0xa7b>
    1d32:	48 8d 05 3f 23 00 00 	lea    rax,[rip+0x233f]        # 4078 <__cxa_finalize@plt+0x2da8>
    1d39:	48 89 c7             	mov    rdi,rax
    1d3c:	e8 9f f4 ff ff       	call   11e0 <perror@plt>
    1d41:	bf 01 00 00 00       	mov    edi,0x1
    1d46:	e8 d5 f4 ff ff       	call   1220 <exit@plt>
    1d4b:	48 8b 45 e8          	mov    rax,QWORD PTR [rbp-0x18]
    1d4f:	8b 48 10             	mov    ecx,DWORD PTR [rax+0x10]
    1d52:	48 8b 55 d8          	mov    rdx,QWORD PTR [rbp-0x28]
    1d56:	8b 45 fc             	mov    eax,DWORD PTR [rbp-0x4]
    1d59:	89 ce                	mov    esi,ecx
    1d5b:	89 c7                	mov    edi,eax
    1d5d:	e8 00 04 00 00       	call   2162 <__cxa_finalize@plt+0xe92>
    1d62:	8b 45 fc             	mov    eax,DWORD PTR [rbp-0x4]
    1d65:	01 c0                	add    eax,eax
    1d67:	89 c0                	mov    eax,eax
    1d69:	48 8d 14 85 00 00 00 	lea    rdx,[rax*4+0x0]
    1d70:	00 
    1d71:	48 8b 45 d8          	mov    rax,QWORD PTR [rbp-0x28]
    1d75:	48 01 d0             	add    rax,rdx
    1d78:	8b 00                	mov    eax,DWORD PTR [rax]
    1d7a:	89 c7                	mov    edi,eax
    1d7c:	e8 6f f3 ff ff       	call   10f0 <close@plt>
    1d81:	8b 45 fc             	mov    eax,DWORD PTR [rbp-0x4]
    1d84:	01 c0                	add    eax,eax
    1d86:	83 c0 01             	add    eax,0x1
    1d89:	89 c0                	mov    eax,eax
    1d8b:	48 8d 14 85 00 00 00 	lea    rdx,[rax*4+0x0]
    1d92:	00 
    1d93:	48 8b 45 d8          	mov    rax,QWORD PTR [rbp-0x28]
    1d97:	48 01 d0             	add    rax,rdx
    1d9a:	8b 00                	mov    eax,DWORD PTR [rax]
    1d9c:	be 01 00 00 00       	mov    esi,0x1
    1da1:	89 c7                	mov    edi,eax
    1da3:	e8 e8 f2 ff ff       	call   1090 <dup2@plt>
    1da8:	8b 45 fc             	mov    eax,DWORD PTR [rbp-0x4]
    1dab:	01 c0                	add    eax,eax
    1dad:	83 c0 01             	add    eax,0x1
    1db0:	89 c0                	mov    eax,eax
    1db2:	48 8d 14 85 00 00 00 	lea    rdx,[rax*4+0x0]
    1db9:	00 
    1dba:	48 8b 45 d8          	mov    rax,QWORD PTR [rbp-0x28]
    1dbe:	48 01 d0             	add    rax,rdx
    1dc1:	8b 00                	mov    eax,DWORD PTR [rax]
    1dc3:	89 c7                	mov    edi,eax
    1dc5:	e8 26 f3 ff ff       	call   10f0 <close@plt>
    1dca:	48 8b 45 e8          	mov    rax,QWORD PTR [rbp-0x18]
    1dce:	0f b7 40 02          	movzx  eax,WORD PTR [rax+0x2]
    1dd2:	0f b7 d0             	movzx  edx,ax
    1dd5:	48 8b 45 e8          	mov    rax,QWORD PTR [rbp-0x18]
    1dd9:	0f b7 00             	movzx  eax,WORD PTR [rax]
    1ddc:	0f b7 c8             	movzx  ecx,ax
    1ddf:	48 8b 45 e8          	mov    rax,QWORD PTR [rbp-0x18]
    1de3:	48 8b 40 18          	mov    rax,QWORD PTR [rax+0x18]
    1de7:	8b 75 fc             	mov    esi,DWORD PTR [rbp-0x4]
    1dea:	48 c1 e6 03          	shl    rsi,0x3
    1dee:	48 01 f0             	add    rax,rsi
    1df1:	48 8b 00             	mov    rax,QWORD PTR [rax]
    1df4:	89 ce                	mov    esi,ecx
    1df6:	48 89 c7             	mov    rdi,rax
    1df9:	e8 13 fe ff ff       	call   1c11 <__cxa_finalize@plt+0x941>
    1dfe:	eb 21                	jmp    1e21 <__cxa_finalize@plt+0xb51>
    1e00:	48 8b 4d e0          	mov    rcx,QWORD PTR [rbp-0x20]
    1e04:	8b 55 fc             	mov    edx,DWORD PTR [rbp-0x4]
    1e07:	48 89 d0             	mov    rax,rdx
    1e0a:	48 c1 e0 02          	shl    rax,0x2
    1e0e:	48 01 d0             	add    rax,rdx
    1e11:	48 c1 e0 03          	shl    rax,0x3
    1e15:	48 01 c8             	add    rax,rcx
    1e18:	48 8d 50 28          	lea    rdx,[rax+0x28]
    1e1c:	8b 45 f8             	mov    eax,DWORD PTR [rbp-0x8]
    1e1f:	89 02                	mov    DWORD PTR [rdx],eax
    1e21:	83 45 fc 01          	add    DWORD PTR [rbp-0x4],0x1
    1e25:	48 8b 45 e8          	mov    rax,QWORD PTR [rbp-0x18]
    1e29:	8b 40 10             	mov    eax,DWORD PTR [rax+0x10]
    1e2c:	39 45 fc             	cmp    DWORD PTR [rbp-0x4],eax
    1e2f:	0f 82 bc fe ff ff    	jb     1cf1 <__cxa_finalize@plt+0xa21>
    1e35:	90                   	nop
    1e36:	90                   	nop
    1e37:	c9                   	leave  
    1e38:	c3                   	ret    
    1e39:	55                   	push   rbp
    1e3a:	48 89 e5             	mov    rbp,rsp
    1e3d:	48 83 ec 20          	sub    rsp,0x20
    1e41:	48 89 7d e8          	mov    QWORD PTR [rbp-0x18],rdi
    1e45:	e8 56 f4 ff ff       	call   12a0 <fork@plt>
    1e4a:	89 45 fc             	mov    DWORD PTR [rbp-0x4],eax
    1e4d:	83 7d fc ff          	cmp    DWORD PTR [rbp-0x4],0xffffffff
    1e51:	74 08                	je     1e5b <__cxa_finalize@plt+0xb8b>
    1e53:	83 7d fc 00          	cmp    DWORD PTR [rbp-0x4],0x0
    1e57:	74 1b                	je     1e74 <__cxa_finalize@plt+0xba4>
    1e59:	eb 40                	jmp    1e9b <__cxa_finalize@plt+0xbcb>
    1e5b:	48 8d 05 11 22 00 00 	lea    rax,[rip+0x2211]        # 4073 <__cxa_finalize@plt+0x2da3>
    1e62:	48 89 c7             	mov    rdi,rax
    1e65:	e8 76 f3 ff ff       	call   11e0 <perror@plt>
    1e6a:	bf 01 00 00 00       	mov    edi,0x1
    1e6f:	e8 ac f3 ff ff       	call   1220 <exit@plt>
    1e74:	48 8b 45 e8          	mov    rax,QWORD PTR [rbp-0x18]
    1e78:	0f b7 40 02          	movzx  eax,WORD PTR [rax+0x2]
    1e7c:	0f b7 d0             	movzx  edx,ax
    1e7f:	48 8b 45 e8          	mov    rax,QWORD PTR [rbp-0x18]
    1e83:	0f b7 00             	movzx  eax,WORD PTR [rax]
    1e86:	0f b7 c8             	movzx  ecx,ax
    1e89:	48 8b 45 e8          	mov    rax,QWORD PTR [rbp-0x18]
    1e8d:	48 8b 40 20          	mov    rax,QWORD PTR [rax+0x20]
    1e91:	89 ce                	mov    esi,ecx
    1e93:	48 89 c7             	mov    rdi,rax
    1e96:	e8 76 fd ff ff       	call   1c11 <__cxa_finalize@plt+0x941>
    1e9b:	8b 45 fc             	mov    eax,DWORD PTR [rbp-0x4]
    1e9e:	c9                   	leave  
    1e9f:	c3                   	ret    
    1ea0:	55                   	push   rbp
    1ea1:	48 89 e5             	mov    rbp,rsp
    1ea4:	48 83 ec 10          	sub    rsp,0x10
    1ea8:	48 89 7d f8          	mov    QWORD PTR [rbp-0x8],rdi
    1eac:	48 8b 45 f8          	mov    rax,QWORD PTR [rbp-0x8]
    1eb0:	48 8d 15 c8 21 00 00 	lea    rdx,[rip+0x21c8]        # 407f <__cxa_finalize@plt+0x2daf>
    1eb7:	48 89 10             	mov    QWORD PTR [rax],rdx
    1eba:	48 8b 45 f8          	mov    rax,QWORD PTR [rbp-0x8]
    1ebe:	c7 40 08 02 00 00 00 	mov    DWORD PTR [rax+0x8],0x2
    1ec5:	48 8b 45 f8          	mov    rax,QWORD PTR [rbp-0x8]
    1ec9:	c7 40 0c 00 00 00 00 	mov    DWORD PTR [rax+0xc],0x0
    1ed0:	48 8b 45 f8          	mov    rax,QWORD PTR [rbp-0x8]
    1ed4:	48 c7 40 18 a8 00 00 	mov    QWORD PTR [rax+0x18],0xa8
    1edb:	00 
    1edc:	48 8b 45 f8          	mov    rax,QWORD PTR [rbp-0x8]
    1ee0:	48 c7 40 20 00 00 00 	mov    QWORD PTR [rax+0x20],0x0
    1ee7:	00 
    1ee8:	48 8b 45 f8          	mov    rax,QWORD PTR [rbp-0x8]
    1eec:	c7 40 28 03 00 00 00 	mov    DWORD PTR [rax+0x28],0x3
    1ef3:	48 8b 45 f8          	mov    rax,QWORD PTR [rbp-0x8]
    1ef7:	c7 40 2c 01 00 00 00 	mov    DWORD PTR [rax+0x2c],0x1
    1efe:	48 8b 45 f8          	mov    rax,QWORD PTR [rbp-0x8]
    1f02:	48 c7 40 30 00 00 00 	mov    QWORD PTR [rax+0x30],0x0
    1f09:	00 
    1f0a:	48 8b 45 f8          	mov    rax,QWORD PTR [rbp-0x8]
    1f0e:	48 89 c7             	mov    rdi,rax
    1f11:	e8 a6 1a 00 00       	call   39bc <__cxa_finalize@plt+0x26ec>
    1f16:	48 8b 45 f8          	mov    rax,QWORD PTR [rbp-0x8]
    1f1a:	48 8b 40 38          	mov    rax,QWORD PTR [rax+0x38]
    1f1e:	c9                   	leave  
    1f1f:	c3                   	ret    
    1f20:	55                   	push   rbp
    1f21:	48 89 e5             	mov    rbp,rsp
    1f24:	48 83 ec 10          	sub    rsp,0x10
    1f28:	89 f9                	mov    ecx,edi
    1f2a:	89 f0                	mov    eax,esi
    1f2c:	48 89 55 f0          	mov    QWORD PTR [rbp-0x10],rdx
    1f30:	89 ca                	mov    edx,ecx
    1f32:	66 89 55 fc          	mov    WORD PTR [rbp-0x4],dx
    1f36:	66 89 45 f8          	mov    WORD PTR [rbp-0x8],ax
    1f3a:	48 8b 45 f0          	mov    rax,QWORD PTR [rbp-0x10]
    1f3e:	48 8d 15 45 21 00 00 	lea    rdx,[rip+0x2145]        # 408a <__cxa_finalize@plt+0x2dba>
    1f45:	48 89 10             	mov    QWORD PTR [rax],rdx
    1f48:	48 8b 45 f0          	mov    rax,QWORD PTR [rbp-0x10]
    1f4c:	c7 40 08 00 00 00 00 	mov    DWORD PTR [rax+0x8],0x0
    1f53:	48 8b 45 f0          	mov    rax,QWORD PTR [rbp-0x10]
    1f57:	c7 40 0c 00 00 00 00 	mov    DWORD PTR [rax+0xc],0x0
    1f5e:	0f b7 55 fc          	movzx  edx,WORD PTR [rbp-0x4]
    1f62:	0f b7 45 f8          	movzx  eax,WORD PTR [rbp-0x8]
    1f66:	48 0f af c2          	imul   rax,rdx
    1f6a:	48 83 c0 5d          	add    rax,0x5d
    1f6e:	48 8d 14 85 00 00 00 	lea    rdx,[rax*4+0x0]
    1f75:	00 
    1f76:	48 8b 45 f0          	mov    rax,QWORD PTR [rbp-0x10]
    1f7a:	48 89 50 18          	mov    QWORD PTR [rax+0x18],rdx
    1f7e:	48 8b 45 f0          	mov    rax,QWORD PTR [rbp-0x10]
    1f82:	48 c7 40 20 00 00 00 	mov    QWORD PTR [rax+0x20],0x0
    1f89:	00 
    1f8a:	48 8b 45 f0          	mov    rax,QWORD PTR [rbp-0x10]
    1f8e:	c7 40 28 01 00 00 00 	mov    DWORD PTR [rax+0x28],0x1
    1f95:	48 8b 45 f0          	mov    rax,QWORD PTR [rbp-0x10]
    1f99:	c7 40 2c 01 00 00 00 	mov    DWORD PTR [rax+0x2c],0x1
    1fa0:	48 8b 45 f0          	mov    rax,QWORD PTR [rbp-0x10]
    1fa4:	48 c7 40 30 00 00 00 	mov    QWORD PTR [rax+0x30],0x0
    1fab:	00 
    1fac:	48 8b 45 f0          	mov    rax,QWORD PTR [rbp-0x10]
    1fb0:	48 89 c7             	mov    rdi,rax
    1fb3:	e8 04 1a 00 00       	call   39bc <__cxa_finalize@plt+0x26ec>
    1fb8:	48 8b 45 f0          	mov    rax,QWORD PTR [rbp-0x10]
    1fbc:	48 8b 40 38          	mov    rax,QWORD PTR [rax+0x38]
    1fc0:	c9                   	leave  
    1fc1:	c3                   	ret    
    1fc2:	55                   	push   rbp
    1fc3:	48 89 e5             	mov    rbp,rsp
    1fc6:	48 83 ec 20          	sub    rsp,0x20
    1fca:	48 89 7d e8          	mov    QWORD PTR [rbp-0x18],rdi
    1fce:	48 8b 45 e8          	mov    rax,QWORD PTR [rbp-0x18]
    1fd2:	48 8d 15 bd 20 00 00 	lea    rdx,[rip+0x20bd]        # 4096 <__cxa_finalize@plt+0x2dc6>
    1fd9:	48 89 10             	mov    QWORD PTR [rax],rdx
    1fdc:	48 8b 45 e8          	mov    rax,QWORD PTR [rbp-0x18]
    1fe0:	c7 40 08 42 00 00 00 	mov    DWORD PTR [rax+0x8],0x42
    1fe7:	48 8b 45 e8          	mov    rax,QWORD PTR [rbp-0x18]
    1feb:	c7 40 0c b6 01 00 00 	mov    DWORD PTR [rax+0xc],0x1b6
    1ff2:	48 8b 45 e8          	mov    rax,QWORD PTR [rbp-0x18]
    1ff6:	48 c7 40 18 a8 00 00 	mov    QWORD PTR [rax+0x18],0xa8
    1ffd:	00 
    1ffe:	48 8b 45 e8          	mov    rax,QWORD PTR [rbp-0x18]
    2002:	48 c7 40 20 00 00 00 	mov    QWORD PTR [rax+0x20],0x0
    2009:	00 
    200a:	48 8b 45 e8          	mov    rax,QWORD PTR [rbp-0x18]
    200e:	c7 40 28 03 00 00 00 	mov    DWORD PTR [rax+0x28],0x3
    2015:	48 8b 45 e8          	mov    rax,QWORD PTR [rbp-0x18]
    2019:	c7 40 2c 01 00 00 00 	mov    DWORD PTR [rax+0x2c],0x1
    2020:	48 8b 45 e8          	mov    rax,QWORD PTR [rbp-0x18]
    2024:	48 c7 40 30 00 00 00 	mov    QWORD PTR [rax+0x30],0x0
    202b:	00 
    202c:	bf 00 00 00 00       	mov    edi,0x0
    2031:	e8 3a f1 ff ff       	call   1170 <umask@plt>
    2036:	89 45 fc             	mov    DWORD PTR [rbp-0x4],eax
    2039:	48 8b 45 e8          	mov    rax,QWORD PTR [rbp-0x18]
    203d:	48 89 c7             	mov    rdi,rax
    2040:	e8 77 19 00 00       	call   39bc <__cxa_finalize@plt+0x26ec>
    2045:	8b 45 fc             	mov    eax,DWORD PTR [rbp-0x4]
    2048:	89 c7                	mov    edi,eax
    204a:	e8 21 f1 ff ff       	call   1170 <umask@plt>
    204f:	48 8b 45 e8          	mov    rax,QWORD PTR [rbp-0x18]
    2053:	48 8b 40 38          	mov    rax,QWORD PTR [rax+0x38]
    2057:	c9                   	leave  
    2058:	c3                   	ret    
    2059:	55                   	push   rbp
    205a:	48 89 e5             	mov    rbp,rsp
    205d:	48 83 ec 10          	sub    rsp,0x10
    2061:	48 89 7d f8          	mov    QWORD PTR [rbp-0x8],rdi
    2065:	48 89 75 f0          	mov    QWORD PTR [rbp-0x10],rsi
    2069:	48 8b 45 f0          	mov    rax,QWORD PTR [rbp-0x10]
    206d:	48 8d 15 2d 20 00 00 	lea    rdx,[rip+0x202d]        # 40a1 <__cxa_finalize@plt+0x2dd1>
    2074:	48 89 10             	mov    QWORD PTR [rax],rdx
    2077:	48 8b 45 f0          	mov    rax,QWORD PTR [rbp-0x10]
    207b:	c7 40 08 42 00 00 00 	mov    DWORD PTR [rax+0x8],0x42
    2082:	48 8b 45 f0          	mov    rax,QWORD PTR [rbp-0x10]
    2086:	c7 40 0c a4 01 00 00 	mov    DWORD PTR [rax+0xc],0x1a4
    208d:	48 8b 45 f8          	mov    rax,QWORD PTR [rbp-0x8]
    2091:	0f b7 00             	movzx  eax,WORD PTR [rax]
    2094:	0f b7 d0             	movzx  edx,ax
    2097:	48 8b 45 f8          	mov    rax,QWORD PTR [rbp-0x8]
    209b:	0f b7 40 02          	movzx  eax,WORD PTR [rax+0x2]
    209f:	0f b7 c0             	movzx  eax,ax
    20a2:	48 0f af c2          	imul   rax,rdx
    20a6:	48 83 c0 5d          	add    rax,0x5d
    20aa:	48 8d 14 85 00 00 00 	lea    rdx,[rax*4+0x0]
    20b1:	00 
    20b2:	48 8b 45 f0          	mov    rax,QWORD PTR [rbp-0x10]
    20b6:	48 89 50 18          	mov    QWORD PTR [rax+0x18],rdx
    20ba:	48 8b 45 f0          	mov    rax,QWORD PTR [rbp-0x10]
    20be:	48 c7 40 20 00 00 00 	mov    QWORD PTR [rax+0x20],0x0
    20c5:	00 
    20c6:	48 8b 45 f0          	mov    rax,QWORD PTR [rbp-0x10]
    20ca:	c7 40 28 03 00 00 00 	mov    DWORD PTR [rax+0x28],0x3
    20d1:	48 8b 45 f0          	mov    rax,QWORD PTR [rbp-0x10]
    20d5:	c7 40 2c 01 00 00 00 	mov    DWORD PTR [rax+0x2c],0x1
    20dc:	48 8b 45 f0          	mov    rax,QWORD PTR [rbp-0x10]
    20e0:	48 c7 40 30 00 00 00 	mov    QWORD PTR [rax+0x30],0x0
    20e7:	00 
    20e8:	48 8b 45 f0          	mov    rax,QWORD PTR [rbp-0x10]
    20ec:	48 89 c7             	mov    rdi,rax
    20ef:	e8 c8 18 00 00       	call   39bc <__cxa_finalize@plt+0x26ec>
    20f4:	48 8b 45 f0          	mov    rax,QWORD PTR [rbp-0x10]
    20f8:	48 8b 40 38          	mov    rax,QWORD PTR [rax+0x38]
    20fc:	c9                   	leave  
    20fd:	c3                   	ret    
    20fe:	55                   	push   rbp
    20ff:	48 89 e5             	mov    rbp,rsp
    2102:	48 83 ec 20          	sub    rsp,0x20
    2106:	89 7d ec             	mov    DWORD PTR [rbp-0x14],edi
    2109:	48 89 75 e0          	mov    QWORD PTR [rbp-0x20],rsi
    210d:	c7 45 fc 00 00 00 00 	mov    DWORD PTR [rbp-0x4],0x0
    2114:	eb 40                	jmp    2156 <__cxa_finalize@plt+0xe86>
    2116:	8b 45 fc             	mov    eax,DWORD PTR [rbp-0x4]
    2119:	01 c0                	add    eax,eax
    211b:	89 c0                	mov    eax,eax
    211d:	48 8d 14 85 00 00 00 	lea    rdx,[rax*4+0x0]
    2124:	00 
    2125:	48 8b 45 e0          	mov    rax,QWORD PTR [rbp-0x20]
    2129:	48 01 d0             	add    rax,rdx
    212c:	48 89 c7             	mov    rdi,rax
    212f:	e8 cc ef ff ff       	call   1100 <pipe@plt>
    2134:	83 f8 ff             	cmp    eax,0xffffffff
    2137:	75 19                	jne    2152 <__cxa_finalize@plt+0xe82>
    2139:	48 8d 05 6d 1f 00 00 	lea    rax,[rip+0x1f6d]        # 40ad <__cxa_finalize@plt+0x2ddd>
    2140:	48 89 c7             	mov    rdi,rax
    2143:	e8 98 f0 ff ff       	call   11e0 <perror@plt>
    2148:	bf 01 00 00 00       	mov    edi,0x1
    214d:	e8 ce f0 ff ff       	call   1220 <exit@plt>
    2152:	83 45 fc 01          	add    DWORD PTR [rbp-0x4],0x1
    2156:	8b 45 fc             	mov    eax,DWORD PTR [rbp-0x4]
    2159:	3b 45 ec             	cmp    eax,DWORD PTR [rbp-0x14]
    215c:	72 b8                	jb     2116 <__cxa_finalize@plt+0xe46>
    215e:	90                   	nop
    215f:	90                   	nop
    2160:	c9                   	leave  
    2161:	c3                   	ret    
    2162:	55                   	push   rbp
    2163:	48 89 e5             	mov    rbp,rsp
    2166:	48 83 ec 20          	sub    rsp,0x20
    216a:	89 7d ec             	mov    DWORD PTR [rbp-0x14],edi
    216d:	89 75 e8             	mov    DWORD PTR [rbp-0x18],esi
    2170:	48 89 55 e0          	mov    QWORD PTR [rbp-0x20],rdx
    2174:	c7 45 fc 00 00 00 00 	mov    DWORD PTR [rbp-0x4],0x0
    217b:	eb 4d                	jmp    21ca <__cxa_finalize@plt+0xefa>
    217d:	8b 45 ec             	mov    eax,DWORD PTR [rbp-0x14]
    2180:	3b 45 fc             	cmp    eax,DWORD PTR [rbp-0x4]
    2183:	74 41                	je     21c6 <__cxa_finalize@plt+0xef6>
    2185:	8b 45 fc             	mov    eax,DWORD PTR [rbp-0x4]
    2188:	01 c0                	add    eax,eax
    218a:	89 c0                	mov    eax,eax
    218c:	48 8d 14 85 00 00 00 	lea    rdx,[rax*4+0x0]
    2193:	00 
    2194:	48 8b 45 e0          	mov    rax,QWORD PTR [rbp-0x20]
    2198:	48 01 d0             	add    rax,rdx
    219b:	8b 00                	mov    eax,DWORD PTR [rax]
    219d:	89 c7                	mov    edi,eax
    219f:	e8 4c ef ff ff       	call   10f0 <close@plt>
    21a4:	8b 45 fc             	mov    eax,DWORD PTR [rbp-0x4]
    21a7:	01 c0                	add    eax,eax
    21a9:	83 c0 01             	add    eax,0x1
    21ac:	89 c0                	mov    eax,eax
    21ae:	48 8d 14 85 00 00 00 	lea    rdx,[rax*4+0x0]
    21b5:	00 
    21b6:	48 8b 45 e0          	mov    rax,QWORD PTR [rbp-0x20]
    21ba:	48 01 d0             	add    rax,rdx
    21bd:	8b 00                	mov    eax,DWORD PTR [rax]
    21bf:	89 c7                	mov    edi,eax
    21c1:	e8 2a ef ff ff       	call   10f0 <close@plt>
    21c6:	83 45 fc 01          	add    DWORD PTR [rbp-0x4],0x1
    21ca:	8b 45 fc             	mov    eax,DWORD PTR [rbp-0x4]
    21cd:	3b 45 e8             	cmp    eax,DWORD PTR [rbp-0x18]
    21d0:	72 ab                	jb     217d <__cxa_finalize@plt+0xead>
    21d2:	90                   	nop
    21d3:	90                   	nop
    21d4:	c9                   	leave  
    21d5:	c3                   	ret    
    21d6:	55                   	push   rbp
    21d7:	48 89 e5             	mov    rbp,rsp
    21da:	48 83 ec 20          	sub    rsp,0x20
    21de:	89 7d ec             	mov    DWORD PTR [rbp-0x14],edi
    21e1:	48 89 75 e0          	mov    QWORD PTR [rbp-0x20],rsi
    21e5:	c7 45 fc 00 00 00 00 	mov    DWORD PTR [rbp-0x4],0x0
    21ec:	eb 26                	jmp    2214 <__cxa_finalize@plt+0xf44>
    21ee:	8b 45 fc             	mov    eax,DWORD PTR [rbp-0x4]
    21f1:	01 c0                	add    eax,eax
    21f3:	83 c0 01             	add    eax,0x1
    21f6:	89 c0                	mov    eax,eax
    21f8:	48 8d 14 85 00 00 00 	lea    rdx,[rax*4+0x0]
    21ff:	00 
    2200:	48 8b 45 e0          	mov    rax,QWORD PTR [rbp-0x20]
    2204:	48 01 d0             	add    rax,rdx
    2207:	8b 00                	mov    eax,DWORD PTR [rax]
    2209:	89 c7                	mov    edi,eax
    220b:	e8 e0 ee ff ff       	call   10f0 <close@plt>
    2210:	83 45 fc 01          	add    DWORD PTR [rbp-0x4],0x1
    2214:	8b 45 fc             	mov    eax,DWORD PTR [rbp-0x4]
    2217:	3b 45 ec             	cmp    eax,DWORD PTR [rbp-0x14]
    221a:	72 d2                	jb     21ee <__cxa_finalize@plt+0xf1e>
    221c:	90                   	nop
    221d:	90                   	nop
    221e:	c9                   	leave  
    221f:	c3                   	ret    
    2220:	55                   	push   rbp
    2221:	48 89 e5             	mov    rbp,rsp
    2224:	48 89 7d d8          	mov    QWORD PTR [rbp-0x28],rdi
    2228:	48 89 75 d0          	mov    QWORD PTR [rbp-0x30],rsi
    222c:	48 89 55 c8          	mov    QWORD PTR [rbp-0x38],rdx
    2230:	c7 45 fc 00 00 00 00 	mov    DWORD PTR [rbp-0x4],0x0
    2237:	48 8b 45 c8          	mov    rax,QWORD PTR [rbp-0x38]
    223b:	48 89 45 e8          	mov    QWORD PTR [rbp-0x18],rax
    223f:	c7 45 f8 00 00 00 00 	mov    DWORD PTR [rbp-0x8],0x0
    2246:	eb 13                	jmp    225b <__cxa_finalize@plt+0xf8b>
    2248:	48 8b 45 e8          	mov    rax,QWORD PTR [rbp-0x18]
    224c:	8b 55 f8             	mov    edx,DWORD PTR [rbp-0x8]
    224f:	48 c7 04 d0 00 00 00 	mov    QWORD PTR [rax+rdx*8],0x0
    2256:	00 
    2257:	83 45 f8 01          	add    DWORD PTR [rbp-0x8],0x1
    225b:	83 7d f8 0f          	cmp    DWORD PTR [rbp-0x8],0xf
    225f:	76 e7                	jbe    2248 <__cxa_finalize@plt+0xf78>
    2261:	c7 45 f4 00 00 00 00 	mov    DWORD PTR [rbp-0xc],0x0
    2268:	e9 e2 00 00 00       	jmp    234f <__cxa_finalize@plt+0x107f>
    226d:	48 8b 4d d8          	mov    rcx,QWORD PTR [rbp-0x28]
    2271:	8b 55 f4             	mov    edx,DWORD PTR [rbp-0xc]
    2274:	48 89 d0             	mov    rax,rdx
    2277:	48 c1 e0 02          	shl    rax,0x2
    227b:	48 01 d0             	add    rax,rdx
    227e:	48 c1 e0 03          	shl    rax,0x3
    2282:	48 01 c8             	add    rax,rcx
    2285:	48 83 c0 2c          	add    rax,0x2c
    2289:	0f b6 00             	movzx  eax,BYTE PTR [rax]
    228c:	83 f0 01             	xor    eax,0x1
    228f:	84 c0                	test   al,al
    2291:	0f 84 b4 00 00 00    	je     234b <__cxa_finalize@plt+0x107b>
    2297:	8b 45 f4             	mov    eax,DWORD PTR [rbp-0xc]
    229a:	01 c0                	add    eax,eax
    229c:	89 c0                	mov    eax,eax
    229e:	48 8d 14 85 00 00 00 	lea    rdx,[rax*4+0x0]
    22a5:	00 
    22a6:	48 8b 45 d0          	mov    rax,QWORD PTR [rbp-0x30]
    22aa:	48 01 d0             	add    rax,rdx
    22ad:	8b 00                	mov    eax,DWORD PTR [rax]
    22af:	8d 50 3f             	lea    edx,[rax+0x3f]
    22b2:	85 c0                	test   eax,eax
    22b4:	0f 48 c2             	cmovs  eax,edx
    22b7:	c1 f8 06             	sar    eax,0x6
    22ba:	89 c2                	mov    edx,eax
    22bc:	48 8b 45 c8          	mov    rax,QWORD PTR [rbp-0x38]
    22c0:	48 63 d2             	movsxd rdx,edx
    22c3:	48 8b 14 d0          	mov    rdx,QWORD PTR [rax+rdx*8]
    22c7:	8b 45 f4             	mov    eax,DWORD PTR [rbp-0xc]
    22ca:	01 c0                	add    eax,eax
    22cc:	89 c0                	mov    eax,eax
    22ce:	48 8d 0c 85 00 00 00 	lea    rcx,[rax*4+0x0]
    22d5:	00 
    22d6:	48 8b 45 d0          	mov    rax,QWORD PTR [rbp-0x30]
    22da:	48 01 c8             	add    rax,rcx
    22dd:	8b 00                	mov    eax,DWORD PTR [rax]
    22df:	83 e0 3f             	and    eax,0x3f
    22e2:	be 01 00 00 00       	mov    esi,0x1
    22e7:	89 c1                	mov    ecx,eax
    22e9:	48 d3 e6             	shl    rsi,cl
    22ec:	48 89 f0             	mov    rax,rsi
    22ef:	48 89 c7             	mov    rdi,rax
    22f2:	8b 45 f4             	mov    eax,DWORD PTR [rbp-0xc]
    22f5:	01 c0                	add    eax,eax
    22f7:	89 c0                	mov    eax,eax
    22f9:	48 8d 0c 85 00 00 00 	lea    rcx,[rax*4+0x0]
    2300:	00 
    2301:	48 8b 45 d0          	mov    rax,QWORD PTR [rbp-0x30]
    2305:	48 01 c8             	add    rax,rcx
    2308:	8b 00                	mov    eax,DWORD PTR [rax]
    230a:	8d 48 3f             	lea    ecx,[rax+0x3f]
    230d:	85 c0                	test   eax,eax
    230f:	0f 48 c1             	cmovs  eax,ecx
    2312:	c1 f8 06             	sar    eax,0x6
    2315:	89 c6                	mov    esi,eax
    2317:	48 89 d1             	mov    rcx,rdx
    231a:	48 09 f9             	or     rcx,rdi
    231d:	48 8b 45 c8          	mov    rax,QWORD PTR [rbp-0x38]
    2321:	48 63 d6             	movsxd rdx,esi
    2324:	48 89 0c d0          	mov    QWORD PTR [rax+rdx*8],rcx
    2328:	8b 45 f4             	mov    eax,DWORD PTR [rbp-0xc]
    232b:	01 c0                	add    eax,eax
    232d:	89 c0                	mov    eax,eax
    232f:	48 8d 14 85 00 00 00 	lea    rdx,[rax*4+0x0]
    2336:	00 
    2337:	48 8b 45 d0          	mov    rax,QWORD PTR [rbp-0x30]
    233b:	48 01 d0             	add    rax,rdx
    233e:	8b 00                	mov    eax,DWORD PTR [rax]
    2340:	8b 55 fc             	mov    edx,DWORD PTR [rbp-0x4]
    2343:	39 c2                	cmp    edx,eax
    2345:	0f 4d c2             	cmovge eax,edx
    2348:	89 45 fc             	mov    DWORD PTR [rbp-0x4],eax
    234b:	83 45 f4 01          	add    DWORD PTR [rbp-0xc],0x1
    234f:	48 8b 45 d8          	mov    rax,QWORD PTR [rbp-0x28]
    2353:	8b 40 04             	mov    eax,DWORD PTR [rax+0x4]
    2356:	39 45 f4             	cmp    DWORD PTR [rbp-0xc],eax
    2359:	0f 82 0e ff ff ff    	jb     226d <__cxa_finalize@plt+0xf9d>
    235f:	8b 45 fc             	mov    eax,DWORD PTR [rbp-0x4]
    2362:	5d                   	pop    rbp
    2363:	c3                   	ret    
    2364:	55                   	push   rbp
    2365:	48 89 e5             	mov    rbp,rsp
    2368:	53                   	push   rbx
    2369:	48 83 ec 58          	sub    rsp,0x58
    236d:	48 89 7d c8          	mov    QWORD PTR [rbp-0x38],rdi
    2371:	48 89 75 c0          	mov    QWORD PTR [rbp-0x40],rsi
    2375:	48 89 55 b8          	mov    QWORD PTR [rbp-0x48],rdx
    2379:	48 89 4d b0          	mov    QWORD PTR [rbp-0x50],rcx
    237d:	4c 89 45 a8          	mov    QWORD PTR [rbp-0x58],r8
    2381:	48 8b 45 c8          	mov    rax,QWORD PTR [rbp-0x38]
    2385:	8b 40 0c             	mov    eax,DWORD PTR [rax+0xc]
    2388:	89 c0                	mov    eax,eax
    238a:	48 85 c0             	test   rax,rax
    238d:	78 10                	js     239f <__cxa_finalize@plt+0x10cf>
    238f:	66 0f ef d2          	pxor   xmm2,xmm2
    2393:	f2 48 0f 2a d0       	cvtsi2sd xmm2,rax
    2398:	f2 0f 11 55 a0       	movsd  QWORD PTR [rbp-0x60],xmm2
    239d:	eb 1e                	jmp    23bd <__cxa_finalize@plt+0x10ed>
    239f:	48 89 c2             	mov    rdx,rax
    23a2:	48 d1 ea             	shr    rdx,1
    23a5:	83 e0 01             	and    eax,0x1
    23a8:	48 09 c2             	or     rdx,rax
    23ab:	66 0f ef c0          	pxor   xmm0,xmm0
    23af:	f2 48 0f 2a c2       	cvtsi2sd xmm0,rdx
    23b4:	f2 0f 58 c0          	addsd  xmm0,xmm0
    23b8:	f2 0f 11 45 a0       	movsd  QWORD PTR [rbp-0x60],xmm0
    23bd:	48 8b 45 a8          	mov    rax,QWORD PTR [rbp-0x58]
    23c1:	48 8b 18             	mov    rbx,QWORD PTR [rax]
    23c4:	bf 00 00 00 00       	mov    edi,0x0
    23c9:	e8 c2 ed ff ff       	call   1190 <time@plt>
    23ce:	48 89 de             	mov    rsi,rbx
    23d1:	48 89 c7             	mov    rdi,rax
    23d4:	e8 d7 ec ff ff       	call   10b0 <difftime@plt>
    23d9:	f2 0f 10 4d a0       	movsd  xmm1,QWORD PTR [rbp-0x60]
    23de:	f2 0f 5c c8          	subsd  xmm1,xmm0
    23e2:	f2 48 0f 2c c1       	cvttsd2si rax,xmm1
    23e7:	48 89 45 d0          	mov    QWORD PTR [rbp-0x30],rax
    23eb:	48 c7 45 d8 00 00 00 	mov    QWORD PTR [rbp-0x28],0x0
    23f2:	00 
    23f3:	48 8b 55 b0          	mov    rdx,QWORD PTR [rbp-0x50]
    23f7:	48 8b 4d b8          	mov    rcx,QWORD PTR [rbp-0x48]
    23fb:	48 8b 45 c0          	mov    rax,QWORD PTR [rbp-0x40]
    23ff:	48 89 ce             	mov    rsi,rcx
    2402:	48 89 c7             	mov    rdi,rax
    2405:	e8 16 fe ff ff       	call   2220 <__cxa_finalize@plt+0xf50>
    240a:	89 45 ec             	mov    DWORD PTR [rbp-0x14],eax
    240d:	48 8b 45 d0          	mov    rax,QWORD PTR [rbp-0x30]
    2411:	48 85 c0             	test   rax,rax
    2414:	7f 07                	jg     241d <__cxa_finalize@plt+0x114d>
    2416:	b8 00 00 00 00       	mov    eax,0x0
    241b:	eb 48                	jmp    2465 <__cxa_finalize@plt+0x1195>
    241d:	8b 45 ec             	mov    eax,DWORD PTR [rbp-0x14]
    2420:	8d 78 01             	lea    edi,[rax+0x1]
    2423:	48 8d 55 d0          	lea    rdx,[rbp-0x30]
    2427:	48 8b 45 b0          	mov    rax,QWORD PTR [rbp-0x50]
    242b:	49 89 d0             	mov    r8,rdx
    242e:	b9 00 00 00 00       	mov    ecx,0x0
    2433:	ba 00 00 00 00       	mov    edx,0x0
    2438:	48 89 c6             	mov    rsi,rax
    243b:	e8 60 ed ff ff       	call   11a0 <select@plt>
    2440:	89 45 e8             	mov    DWORD PTR [rbp-0x18],eax
    2443:	83 7d e8 ff          	cmp    DWORD PTR [rbp-0x18],0xffffffff
    2447:	75 19                	jne    2462 <__cxa_finalize@plt+0x1192>
    2449:	48 8d 05 62 1c 00 00 	lea    rax,[rip+0x1c62]        # 40b2 <__cxa_finalize@plt+0x2de2>
    2450:	48 89 c7             	mov    rdi,rax
    2453:	e8 88 ed ff ff       	call   11e0 <perror@plt>
    2458:	bf 01 00 00 00       	mov    edi,0x1
    245d:	e8 be ed ff ff       	call   1220 <exit@plt>
    2462:	8b 45 e8             	mov    eax,DWORD PTR [rbp-0x18]
    2465:	48 8b 5d f8          	mov    rbx,QWORD PTR [rbp-0x8]
    2469:	c9                   	leave  
    246a:	c3                   	ret    
    246b:	55                   	push   rbp
    246c:	48 89 e5             	mov    rbp,rsp
    246f:	48 83 ec 30          	sub    rsp,0x30
    2473:	48 89 7d e8          	mov    QWORD PTR [rbp-0x18],rdi
    2477:	89 75 e4             	mov    DWORD PTR [rbp-0x1c],esi
    247a:	48 89 55 d8          	mov    QWORD PTR [rbp-0x28],rdx
    247e:	48 89 4d d0          	mov    QWORD PTR [rbp-0x30],rcx
    2482:	8b 45 e4             	mov    eax,DWORD PTR [rbp-0x1c]
    2485:	01 c0                	add    eax,eax
    2487:	89 c0                	mov    eax,eax
    2489:	48 8d 14 85 00 00 00 	lea    rdx,[rax*4+0x0]
    2490:	00 
    2491:	48 8b 45 e8          	mov    rax,QWORD PTR [rbp-0x18]
    2495:	48 01 d0             	add    rax,rdx
    2498:	8b 00                	mov    eax,DWORD PTR [rax]
    249a:	48 8d 4d ff          	lea    rcx,[rbp-0x1]
    249e:	ba 01 00 00 00       	mov    edx,0x1
    24a3:	48 89 ce             	mov    rsi,rcx
    24a6:	89 c7                	mov    edi,eax
    24a8:	e8 83 ec ff ff       	call   1130 <read@plt>
    24ad:	48 83 f8 ff          	cmp    rax,0xffffffffffffffff
    24b1:	74 07                	je     24ba <__cxa_finalize@plt+0x11ea>
    24b3:	48 85 c0             	test   rax,rax
    24b6:	74 1b                	je     24d3 <__cxa_finalize@plt+0x1203>
    24b8:	eb 20                	jmp    24da <__cxa_finalize@plt+0x120a>
    24ba:	48 8d 05 f8 1b 00 00 	lea    rax,[rip+0x1bf8]        # 40b9 <__cxa_finalize@plt+0x2de9>
    24c1:	48 89 c7             	mov    rdi,rax
    24c4:	e8 17 ed ff ff       	call   11e0 <perror@plt>
    24c9:	bf 01 00 00 00       	mov    edi,0x1
    24ce:	e8 4d ed ff ff       	call   1220 <exit@plt>
    24d3:	b8 00 00 00 00       	mov    eax,0x0
    24d8:	eb 1b                	jmp    24f5 <__cxa_finalize@plt+0x1225>
    24da:	0f b6 45 ff          	movzx  eax,BYTE PTR [rbp-0x1]
    24de:	0f b6 d0             	movzx  edx,al
    24e1:	48 8b 45 d0          	mov    rax,QWORD PTR [rbp-0x30]
    24e5:	89 10                	mov    DWORD PTR [rax],edx
    24e7:	48 8b 45 d8          	mov    rax,QWORD PTR [rbp-0x28]
    24eb:	8b 55 e4             	mov    edx,DWORD PTR [rbp-0x1c]
    24ee:	89 10                	mov    DWORD PTR [rax],edx
    24f0:	b8 01 00 00 00       	mov    eax,0x1
    24f5:	c9                   	leave  
    24f6:	c3                   	ret    
    24f7:	55                   	push   rbp
    24f8:	48 89 e5             	mov    rbp,rsp
    24fb:	48 83 ec 20          	sub    rsp,0x20
    24ff:	89 7d ec             	mov    DWORD PTR [rbp-0x14],edi
    2502:	89 75 e8             	mov    DWORD PTR [rbp-0x18],esi
    2505:	8b 45 e8             	mov    eax,DWORD PTR [rbp-0x18]
    2508:	88 45 ff             	mov    BYTE PTR [rbp-0x1],al
    250b:	48 8d 4d ff          	lea    rcx,[rbp-0x1]
    250f:	8b 45 ec             	mov    eax,DWORD PTR [rbp-0x14]
    2512:	ba 01 00 00 00       	mov    edx,0x1
    2517:	48 89 ce             	mov    rsi,rcx
    251a:	89 c7                	mov    edi,eax
    251c:	e8 2f eb ff ff       	call   1050 <write@plt>
    2521:	48 83 f8 ff          	cmp    rax,0xffffffffffffffff
    2525:	75 19                	jne    2540 <__cxa_finalize@plt+0x1270>
    2527:	48 8d 05 90 1b 00 00 	lea    rax,[rip+0x1b90]        # 40be <__cxa_finalize@plt+0x2dee>
    252e:	48 89 c7             	mov    rdi,rax
    2531:	e8 aa ec ff ff       	call   11e0 <perror@plt>
    2536:	bf 01 00 00 00       	mov    edi,0x1
    253b:	e8 e0 ec ff ff       	call   1220 <exit@plt>
    2540:	90                   	nop
    2541:	c9                   	leave  
    2542:	c3                   	ret    
    2543:	55                   	push   rbp
    2544:	48 89 e5             	mov    rbp,rsp
    2547:	48 83 ec 50          	sub    rsp,0x50
    254b:	48 89 7d b8          	mov    QWORD PTR [rbp-0x48],rdi
    254f:	48 8b 45 b8          	mov    rax,QWORD PTR [rbp-0x48]
    2553:	0f b7 00             	movzx  eax,WORD PTR [rax]
    2556:	0f b7 c0             	movzx  eax,ax
    2559:	66 0f ef c0          	pxor   xmm0,xmm0
    255d:	f2 0f 2a c0          	cvtsi2sd xmm0,eax
    2561:	f2 0f 10 0d 5f 1b 00 	movsd  xmm1,QWORD PTR [rip+0x1b5f]        # 40c8 <__cxa_finalize@plt+0x2df8>
    2568:	00 
    2569:	f2 0f 5e c1          	divsd  xmm0,xmm1
    256d:	f2 0f 11 45 f0       	movsd  QWORD PTR [rbp-0x10],xmm0
    2572:	48 8b 45 b8          	mov    rax,QWORD PTR [rbp-0x48]
    2576:	0f b7 40 02          	movzx  eax,WORD PTR [rax+0x2]
    257a:	0f b7 c0             	movzx  eax,ax
    257d:	66 0f ef c0          	pxor   xmm0,xmm0
    2581:	f2 0f 2a c0          	cvtsi2sd xmm0,eax
    2585:	f2 0f 10 0d 3b 1b 00 	movsd  xmm1,QWORD PTR [rip+0x1b3b]        # 40c8 <__cxa_finalize@plt+0x2df8>
    258c:	00 
    258d:	f2 0f 5e c1          	divsd  xmm0,xmm1
    2591:	f2 0f 11 45 e8       	movsd  QWORD PTR [rbp-0x18],xmm0
    2596:	48 8b 45 b8          	mov    rax,QWORD PTR [rbp-0x48]
    259a:	0f b7 00             	movzx  eax,WORD PTR [rax]
    259d:	0f b7 c0             	movzx  eax,ax
    25a0:	66 0f ef c0          	pxor   xmm0,xmm0
    25a4:	f2 0f 2a c0          	cvtsi2sd xmm0,eax
    25a8:	f2 0f 10 0d 20 1b 00 	movsd  xmm1,QWORD PTR [rip+0x1b20]        # 40d0 <__cxa_finalize@plt+0x2e00>
    25af:	00 
    25b0:	f2 0f 5e c1          	divsd  xmm0,xmm1
    25b4:	f2 0f 11 45 e0       	movsd  QWORD PTR [rbp-0x20],xmm0
    25b9:	48 8b 45 b8          	mov    rax,QWORD PTR [rbp-0x48]
    25bd:	0f b7 40 02          	movzx  eax,WORD PTR [rax+0x2]
    25c1:	0f b7 c0             	movzx  eax,ax
    25c4:	66 0f ef c0          	pxor   xmm0,xmm0
    25c8:	f2 0f 2a c0          	cvtsi2sd xmm0,eax
    25cc:	f2 0f 10 0d fc 1a 00 	movsd  xmm1,QWORD PTR [rip+0x1afc]        # 40d0 <__cxa_finalize@plt+0x2e00>
    25d3:	00 
    25d4:	f2 0f 5e c1          	divsd  xmm0,xmm1
    25d8:	f2 0f 11 45 d8       	movsd  QWORD PTR [rbp-0x28],xmm0
    25dd:	48 8b 45 b8          	mov    rax,QWORD PTR [rbp-0x48]
    25e1:	8b 40 04             	mov    eax,DWORD PTR [rax+0x4]
    25e4:	83 f8 01             	cmp    eax,0x1
    25e7:	0f 85 c2 00 00 00    	jne    26af <__cxa_finalize@plt+0x13df>
    25ed:	c7 45 c8 00 00 00 00 	mov    DWORD PTR [rbp-0x38],0x0
    25f4:	f2 0f 2c 45 f0       	cvttsd2si eax,QWORD PTR [rbp-0x10]
    25f9:	89 c6                	mov    esi,eax
    25fb:	48 8b 4d b8          	mov    rcx,QWORD PTR [rbp-0x48]
    25ff:	8b 55 c8             	mov    edx,DWORD PTR [rbp-0x38]
    2602:	48 89 d0             	mov    rax,rdx
    2605:	48 c1 e0 02          	shl    rax,0x2
    2609:	48 01 d0             	add    rax,rdx
    260c:	48 c1 e0 03          	shl    rax,0x3
    2610:	48 01 c8             	add    rax,rcx
    2613:	48 83 c0 24          	add    rax,0x24
    2617:	66 89 30             	mov    WORD PTR [rax],si
    261a:	f2 0f 2c 45 e8       	cvttsd2si eax,QWORD PTR [rbp-0x18]
    261f:	89 c6                	mov    esi,eax
    2621:	48 8b 4d b8          	mov    rcx,QWORD PTR [rbp-0x48]
    2625:	8b 55 c8             	mov    edx,DWORD PTR [rbp-0x38]
    2628:	48 89 d0             	mov    rax,rdx
    262b:	48 c1 e0 02          	shl    rax,0x2
    262f:	48 01 d0             	add    rax,rdx
    2632:	48 c1 e0 03          	shl    rax,0x3
    2636:	48 01 c8             	add    rax,rcx
    2639:	48 83 c0 26          	add    rax,0x26
    263d:	66 89 30             	mov    WORD PTR [rax],si
    2640:	8b 4d c8             	mov    ecx,DWORD PTR [rbp-0x38]
    2643:	48 8b 75 b8          	mov    rsi,QWORD PTR [rbp-0x48]
    2647:	8b 55 c8             	mov    edx,DWORD PTR [rbp-0x38]
    264a:	48 89 d0             	mov    rax,rdx
    264d:	48 c1 e0 02          	shl    rax,0x2
    2651:	48 01 d0             	add    rax,rdx
    2654:	48 c1 e0 03          	shl    rax,0x3
    2658:	48 01 f0             	add    rax,rsi
    265b:	48 83 c0 24          	add    rax,0x24
    265f:	0f b7 00             	movzx  eax,WORD PTR [rax]
    2662:	0f b7 d0             	movzx  edx,ax
    2665:	48 8b 45 b8          	mov    rax,QWORD PTR [rbp-0x48]
    2669:	0f b7 00             	movzx  eax,WORD PTR [rax]
    266c:	0f b7 c0             	movzx  eax,ax
    266f:	89 d6                	mov    esi,edx
    2671:	0f af f0             	imul   esi,eax
    2674:	48 8b 7d b8          	mov    rdi,QWORD PTR [rbp-0x48]
    2678:	8b 55 c8             	mov    edx,DWORD PTR [rbp-0x38]
    267b:	48 89 d0             	mov    rax,rdx
    267e:	48 c1 e0 02          	shl    rax,0x2
    2682:	48 01 d0             	add    rax,rdx
    2685:	48 c1 e0 03          	shl    rax,0x3
    2689:	48 01 f8             	add    rax,rdi
    268c:	48 83 c0 24          	add    rax,0x24
    2690:	0f b7 00             	movzx  eax,WORD PTR [rax]
    2693:	0f b7 c0             	movzx  eax,ax
    2696:	8d 14 06             	lea    edx,[rsi+rax*1]
    2699:	f7 d9                	neg    ecx
    269b:	48 8b 45 b8          	mov    rax,QWORD PTR [rbp-0x48]
    269f:	48 63 d2             	movsxd rdx,edx
    26a2:	48 83 c2 5c          	add    rdx,0x5c
    26a6:	89 4c 90 04          	mov    DWORD PTR [rax+rdx*4+0x4],ecx
    26aa:	e9 78 01 00 00       	jmp    2827 <__cxa_finalize@plt+0x1557>
    26af:	c7 45 fc 00 00 00 00 	mov    DWORD PTR [rbp-0x4],0x0
    26b6:	e9 5c 01 00 00       	jmp    2817 <__cxa_finalize@plt+0x1547>
    26bb:	8b 45 fc             	mov    eax,DWORD PTR [rbp-0x4]
    26be:	48 85 c0             	test   rax,rax
    26c1:	78 0b                	js     26ce <__cxa_finalize@plt+0x13fe>
    26c3:	66 0f ef c0          	pxor   xmm0,xmm0
    26c7:	f2 48 0f 2a c0       	cvtsi2sd xmm0,rax
    26cc:	eb 19                	jmp    26e7 <__cxa_finalize@plt+0x1417>
    26ce:	48 89 c2             	mov    rdx,rax
    26d1:	48 d1 ea             	shr    rdx,1
    26d4:	83 e0 01             	and    eax,0x1
    26d7:	48 09 c2             	or     rdx,rax
    26da:	66 0f ef c0          	pxor   xmm0,xmm0
    26de:	f2 48 0f 2a c2       	cvtsi2sd xmm0,rdx
    26e3:	f2 0f 58 c0          	addsd  xmm0,xmm0
    26e7:	f2 0f 10 0d e9 19 00 	movsd  xmm1,QWORD PTR [rip+0x19e9]        # 40d8 <__cxa_finalize@plt+0x2e08>
    26ee:	00 
    26ef:	f2 0f 59 c8          	mulsd  xmm1,xmm0
    26f3:	48 8b 45 b8          	mov    rax,QWORD PTR [rbp-0x48]
    26f7:	8b 40 04             	mov    eax,DWORD PTR [rax+0x4]
    26fa:	89 c0                	mov    eax,eax
    26fc:	48 85 c0             	test   rax,rax
    26ff:	78 0b                	js     270c <__cxa_finalize@plt+0x143c>
    2701:	66 0f ef c0          	pxor   xmm0,xmm0
    2705:	f2 48 0f 2a c0       	cvtsi2sd xmm0,rax
    270a:	eb 19                	jmp    2725 <__cxa_finalize@plt+0x1455>
    270c:	48 89 c2             	mov    rdx,rax
    270f:	48 d1 ea             	shr    rdx,1
    2712:	83 e0 01             	and    eax,0x1
    2715:	48 09 c2             	or     rdx,rax
    2718:	66 0f ef c0          	pxor   xmm0,xmm0
    271c:	f2 48 0f 2a c2       	cvtsi2sd xmm0,rdx
    2721:	f2 0f 58 c0          	addsd  xmm0,xmm0
    2725:	f2 0f 5e c8          	divsd  xmm1,xmm0
    2729:	f2 0f 11 4d d0       	movsd  QWORD PTR [rbp-0x30],xmm1
    272e:	48 8b 45 d0          	mov    rax,QWORD PTR [rbp-0x30]
    2732:	66 48 0f 6e c0       	movq   xmm0,rax
    2737:	e8 e4 e9 ff ff       	call   1120 <cos@plt>
    273c:	66 48 0f 7e c0       	movq   rax,xmm0
    2741:	66 48 0f 6e c0       	movq   xmm0,rax
    2746:	f2 0f 59 45 e0       	mulsd  xmm0,QWORD PTR [rbp-0x20]
    274b:	66 0f 28 c8          	movapd xmm1,xmm0
    274f:	f2 0f 58 4d f0       	addsd  xmm1,QWORD PTR [rbp-0x10]
    2754:	f2 0f 10 05 84 19 00 	movsd  xmm0,QWORD PTR [rip+0x1984]        # 40e0 <__cxa_finalize@plt+0x2e10>
    275b:	00 
    275c:	f2 0f 58 c1          	addsd  xmm0,xmm1
    2760:	f2 0f 2c c0          	cvttsd2si eax,xmm0
    2764:	66 89 45 ce          	mov    WORD PTR [rbp-0x32],ax
    2768:	48 8b 45 d0          	mov    rax,QWORD PTR [rbp-0x30]
    276c:	66 48 0f 6e c0       	movq   xmm0,rax
    2771:	e8 8a ea ff ff       	call   1200 <sin@plt>
    2776:	66 48 0f 7e c0       	movq   rax,xmm0
    277b:	66 48 0f 6e c0       	movq   xmm0,rax
    2780:	f2 0f 59 45 d8       	mulsd  xmm0,QWORD PTR [rbp-0x28]
    2785:	66 0f 28 c8          	movapd xmm1,xmm0
    2789:	f2 0f 58 4d e8       	addsd  xmm1,QWORD PTR [rbp-0x18]
    278e:	f2 0f 10 05 4a 19 00 	movsd  xmm0,QWORD PTR [rip+0x194a]        # 40e0 <__cxa_finalize@plt+0x2e10>
    2795:	00 
    2796:	f2 0f 58 c1          	addsd  xmm0,xmm1
    279a:	f2 0f 2c c0          	cvttsd2si eax,xmm0
    279e:	66 89 45 cc          	mov    WORD PTR [rbp-0x34],ax
    27a2:	48 8b 4d b8          	mov    rcx,QWORD PTR [rbp-0x48]
    27a6:	8b 55 fc             	mov    edx,DWORD PTR [rbp-0x4]
    27a9:	48 89 d0             	mov    rax,rdx
    27ac:	48 c1 e0 02          	shl    rax,0x2
    27b0:	48 01 d0             	add    rax,rdx
    27b3:	48 c1 e0 03          	shl    rax,0x3
    27b7:	48 01 c8             	add    rax,rcx
    27ba:	48 8d 50 24          	lea    rdx,[rax+0x24]
    27be:	0f b7 45 ce          	movzx  eax,WORD PTR [rbp-0x32]
    27c2:	66 89 02             	mov    WORD PTR [rdx],ax
    27c5:	48 8b 4d b8          	mov    rcx,QWORD PTR [rbp-0x48]
    27c9:	8b 55 fc             	mov    edx,DWORD PTR [rbp-0x4]
    27cc:	48 89 d0             	mov    rax,rdx
    27cf:	48 c1 e0 02          	shl    rax,0x2
    27d3:	48 01 d0             	add    rax,rdx
    27d6:	48 c1 e0 03          	shl    rax,0x3
    27da:	48 01 c8             	add    rax,rcx
    27dd:	48 8d 50 26          	lea    rdx,[rax+0x26]
    27e1:	0f b7 45 cc          	movzx  eax,WORD PTR [rbp-0x34]
    27e5:	66 89 02             	mov    WORD PTR [rdx],ax
    27e8:	8b 4d fc             	mov    ecx,DWORD PTR [rbp-0x4]
    27eb:	0f b7 55 cc          	movzx  edx,WORD PTR [rbp-0x34]
    27ef:	48 8b 45 b8          	mov    rax,QWORD PTR [rbp-0x48]
    27f3:	0f b7 00             	movzx  eax,WORD PTR [rax]
    27f6:	0f b7 c0             	movzx  eax,ax
    27f9:	0f af d0             	imul   edx,eax
    27fc:	0f b7 45 ce          	movzx  eax,WORD PTR [rbp-0x32]
    2800:	01 c2                	add    edx,eax
    2802:	f7 d9                	neg    ecx
    2804:	48 8b 45 b8          	mov    rax,QWORD PTR [rbp-0x48]
    2808:	48 63 d2             	movsxd rdx,edx
    280b:	48 83 c2 5c          	add    rdx,0x5c
    280f:	89 4c 90 04          	mov    DWORD PTR [rax+rdx*4+0x4],ecx
    2813:	83 45 fc 01          	add    DWORD PTR [rbp-0x4],0x1
    2817:	48 8b 45 b8          	mov    rax,QWORD PTR [rbp-0x48]
    281b:	8b 40 04             	mov    eax,DWORD PTR [rax+0x4]
    281e:	39 45 fc             	cmp    DWORD PTR [rbp-0x4],eax
    2821:	0f 82 94 fe ff ff    	jb     26bb <__cxa_finalize@plt+0x13eb>
    2827:	c9                   	leave  
    2828:	c3                   	ret    
    2829:	55                   	push   rbp
    282a:	48 89 e5             	mov    rbp,rsp
    282d:	48 89 7d e8          	mov    QWORD PTR [rbp-0x18],rdi
    2831:	89 75 e4             	mov    DWORD PTR [rbp-0x1c],esi
    2834:	8b 05 46 3a 00 00    	mov    eax,DWORD PTR [rip+0x3a46]        # 6280 <stderr@GLIBC_2.2.5+0xe0>
    283a:	85 c0                	test   eax,eax
    283c:	75 66                	jne    28a4 <__cxa_finalize@plt+0x15d4>
    283e:	48 8b 45 e8          	mov    rax,QWORD PTR [rbp-0x18]
    2842:	0f b7 00             	movzx  eax,WORD PTR [rax]
    2845:	0f b7 c0             	movzx  eax,ax
    2848:	89 45 fc             	mov    DWORD PTR [rbp-0x4],eax
    284b:	8b 45 fc             	mov    eax,DWORD PTR [rbp-0x4]
    284e:	f7 d8                	neg    eax
    2850:	89 05 2a 3a 00 00    	mov    DWORD PTR [rip+0x3a2a],eax        # 6280 <stderr@GLIBC_2.2.5+0xe0>
    2856:	b8 01 00 00 00       	mov    eax,0x1
    285b:	2b 45 fc             	sub    eax,DWORD PTR [rbp-0x4]
    285e:	89 05 20 3a 00 00    	mov    DWORD PTR [rip+0x3a20],eax        # 6284 <stderr@GLIBC_2.2.5+0xe4>
    2864:	c7 05 1a 3a 00 00 01 	mov    DWORD PTR [rip+0x3a1a],0x1        # 6288 <stderr@GLIBC_2.2.5+0xe8>
    286b:	00 00 00 
    286e:	8b 45 fc             	mov    eax,DWORD PTR [rbp-0x4]
    2871:	83 c0 01             	add    eax,0x1
    2874:	89 05 12 3a 00 00    	mov    DWORD PTR [rip+0x3a12],eax        # 628c <stderr@GLIBC_2.2.5+0xec>
    287a:	8b 45 fc             	mov    eax,DWORD PTR [rbp-0x4]
    287d:	89 05 0d 3a 00 00    	mov    DWORD PTR [rip+0x3a0d],eax        # 6290 <stderr@GLIBC_2.2.5+0xf0>
    2883:	8b 45 fc             	mov    eax,DWORD PTR [rbp-0x4]
    2886:	83 e8 01             	sub    eax,0x1
    2889:	89 05 05 3a 00 00    	mov    DWORD PTR [rip+0x3a05],eax        # 6294 <stderr@GLIBC_2.2.5+0xf4>
    288f:	c7 05 ff 39 00 00 ff 	mov    DWORD PTR [rip+0x39ff],0xffffffff        # 6298 <stderr@GLIBC_2.2.5+0xf8>
    2896:	ff ff ff 
    2899:	8b 45 fc             	mov    eax,DWORD PTR [rbp-0x4]
    289c:	f7 d0                	not    eax
    289e:	89 05 f8 39 00 00    	mov    DWORD PTR [rip+0x39f8],eax        # 629c <stderr@GLIBC_2.2.5+0xfc>
    28a4:	8b 45 e4             	mov    eax,DWORD PTR [rbp-0x1c]
    28a7:	48 8d 14 85 00 00 00 	lea    rdx,[rax*4+0x0]
    28ae:	00 
    28af:	48 8d 05 ca 39 00 00 	lea    rax,[rip+0x39ca]        # 6280 <stderr@GLIBC_2.2.5+0xe0>
    28b6:	8b 04 02             	mov    eax,DWORD PTR [rdx+rax*1]
    28b9:	5d                   	pop    rbp
    28ba:	c3                   	ret    
    28bb:	55                   	push   rbp
    28bc:	48 89 e5             	mov    rbp,rsp
    28bf:	48 89 7d f8          	mov    QWORD PTR [rbp-0x8],rdi
    28c3:	89 f1                	mov    ecx,esi
    28c5:	89 d0                	mov    eax,edx
    28c7:	89 ca                	mov    edx,ecx
    28c9:	66 89 55 f4          	mov    WORD PTR [rbp-0xc],dx
    28cd:	66 89 45 f0          	mov    WORD PTR [rbp-0x10],ax
    28d1:	0f b7 55 f0          	movzx  edx,WORD PTR [rbp-0x10]
    28d5:	48 8b 45 f8          	mov    rax,QWORD PTR [rbp-0x8]
    28d9:	0f b7 00             	movzx  eax,WORD PTR [rax]
    28dc:	0f b7 c0             	movzx  eax,ax
    28df:	0f af d0             	imul   edx,eax
    28e2:	0f b7 45 f4          	movzx  eax,WORD PTR [rbp-0xc]
    28e6:	01 d0                	add    eax,edx
    28e8:	5d                   	pop    rbp
    28e9:	c3                   	ret    
    28ea:	55                   	push   rbp
    28eb:	48 89 e5             	mov    rbp,rsp
    28ee:	48 89 7d f8          	mov    QWORD PTR [rbp-0x8],rdi
    28f2:	89 75 f4             	mov    DWORD PTR [rbp-0xc],esi
    28f5:	48 89 55 e8          	mov    QWORD PTR [rbp-0x18],rdx
    28f9:	48 89 4d e0          	mov    QWORD PTR [rbp-0x20],rcx
    28fd:	48 8b 45 f8          	mov    rax,QWORD PTR [rbp-0x8]
    2901:	0f b7 00             	movzx  eax,WORD PTR [rax]
    2904:	0f b7 c8             	movzx  ecx,ax
    2907:	8b 45 f4             	mov    eax,DWORD PTR [rbp-0xc]
    290a:	ba 00 00 00 00       	mov    edx,0x0
    290f:	f7 f1                	div    ecx
    2911:	89 d0                	mov    eax,edx
    2913:	89 c2                	mov    edx,eax
    2915:	48 8b 45 e8          	mov    rax,QWORD PTR [rbp-0x18]
    2919:	66 89 10             	mov    WORD PTR [rax],dx
    291c:	48 8b 45 f8          	mov    rax,QWORD PTR [rbp-0x8]
    2920:	0f b7 00             	movzx  eax,WORD PTR [rax]
    2923:	0f b7 f0             	movzx  esi,ax
    2926:	8b 45 f4             	mov    eax,DWORD PTR [rbp-0xc]
    2929:	ba 00 00 00 00       	mov    edx,0x0
    292e:	f7 f6                	div    esi
    2930:	89 c2                	mov    edx,eax
    2932:	48 8b 45 e0          	mov    rax,QWORD PTR [rbp-0x20]
    2936:	66 89 10             	mov    WORD PTR [rax],dx
    2939:	90                   	nop
    293a:	5d                   	pop    rbp
    293b:	c3                   	ret    
    293c:	55                   	push   rbp
    293d:	48 89 e5             	mov    rbp,rsp
    2940:	48 89 7d e8          	mov    QWORD PTR [rbp-0x18],rdi
    2944:	89 75 e4             	mov    DWORD PTR [rbp-0x1c],esi
    2947:	89 55 e0             	mov    DWORD PTR [rbp-0x20],edx
    294a:	48 8b 4d e8          	mov    rcx,QWORD PTR [rbp-0x18]
    294e:	8b 55 e4             	mov    edx,DWORD PTR [rbp-0x1c]
    2951:	48 89 d0             	mov    rax,rdx
    2954:	48 c1 e0 02          	shl    rax,0x2
    2958:	48 01 d0             	add    rax,rdx
    295b:	48 c1 e0 03          	shl    rax,0x3
    295f:	48 01 c8             	add    rax,rcx
    2962:	48 83 c0 24          	add    rax,0x24
    2966:	0f b7 00             	movzx  eax,WORD PTR [rax]
    2969:	66 89 45 fe          	mov    WORD PTR [rbp-0x2],ax
    296d:	48 8b 4d e8          	mov    rcx,QWORD PTR [rbp-0x18]
    2971:	8b 55 e4             	mov    edx,DWORD PTR [rbp-0x1c]
    2974:	48 89 d0             	mov    rax,rdx
    2977:	48 c1 e0 02          	shl    rax,0x2
    297b:	48 01 d0             	add    rax,rdx
    297e:	48 c1 e0 03          	shl    rax,0x3
    2982:	48 01 c8             	add    rax,rcx
    2985:	48 83 c0 26          	add    rax,0x26
    2989:	0f b7 00             	movzx  eax,WORD PTR [rax]
    298c:	66 89 45 fc          	mov    WORD PTR [rbp-0x4],ax
    2990:	66 83 7d fc 00       	cmp    WORD PTR [rbp-0x4],0x0
    2995:	75 1c                	jne    29b3 <__cxa_finalize@plt+0x16e3>
    2997:	83 7d e0 07          	cmp    DWORD PTR [rbp-0x20],0x7
    299b:	74 0c                	je     29a9 <__cxa_finalize@plt+0x16d9>
    299d:	83 7d e0 00          	cmp    DWORD PTR [rbp-0x20],0x0
    29a1:	74 06                	je     29a9 <__cxa_finalize@plt+0x16d9>
    29a3:	83 7d e0 01          	cmp    DWORD PTR [rbp-0x20],0x1
    29a7:	75 0a                	jne    29b3 <__cxa_finalize@plt+0x16e3>
    29a9:	b8 01 00 00 00       	mov    eax,0x1
    29ae:	e9 82 00 00 00       	jmp    2a35 <__cxa_finalize@plt+0x1765>
    29b3:	0f b7 55 fc          	movzx  edx,WORD PTR [rbp-0x4]
    29b7:	48 8b 45 e8          	mov    rax,QWORD PTR [rbp-0x18]
    29bb:	0f b7 40 02          	movzx  eax,WORD PTR [rax+0x2]
    29bf:	0f b7 c0             	movzx  eax,ax
    29c2:	83 e8 01             	sub    eax,0x1
    29c5:	39 c2                	cmp    edx,eax
    29c7:	75 19                	jne    29e2 <__cxa_finalize@plt+0x1712>
    29c9:	83 7d e0 05          	cmp    DWORD PTR [rbp-0x20],0x5
    29cd:	74 0c                	je     29db <__cxa_finalize@plt+0x170b>
    29cf:	83 7d e0 04          	cmp    DWORD PTR [rbp-0x20],0x4
    29d3:	74 06                	je     29db <__cxa_finalize@plt+0x170b>
    29d5:	83 7d e0 03          	cmp    DWORD PTR [rbp-0x20],0x3
    29d9:	75 07                	jne    29e2 <__cxa_finalize@plt+0x1712>
    29db:	b8 01 00 00 00       	mov    eax,0x1
    29e0:	eb 53                	jmp    2a35 <__cxa_finalize@plt+0x1765>
    29e2:	66 83 7d fe 00       	cmp    WORD PTR [rbp-0x2],0x0
    29e7:	75 19                	jne    2a02 <__cxa_finalize@plt+0x1732>
    29e9:	83 7d e0 07          	cmp    DWORD PTR [rbp-0x20],0x7
    29ed:	74 0c                	je     29fb <__cxa_finalize@plt+0x172b>
    29ef:	83 7d e0 06          	cmp    DWORD PTR [rbp-0x20],0x6
    29f3:	74 06                	je     29fb <__cxa_finalize@plt+0x172b>
    29f5:	83 7d e0 05          	cmp    DWORD PTR [rbp-0x20],0x5
    29f9:	75 07                	jne    2a02 <__cxa_finalize@plt+0x1732>
    29fb:	b8 01 00 00 00       	mov    eax,0x1
    2a00:	eb 33                	jmp    2a35 <__cxa_finalize@plt+0x1765>
    2a02:	0f b7 55 fe          	movzx  edx,WORD PTR [rbp-0x2]
    2a06:	48 8b 45 e8          	mov    rax,QWORD PTR [rbp-0x18]
    2a0a:	0f b7 00             	movzx  eax,WORD PTR [rax]
    2a0d:	0f b7 c0             	movzx  eax,ax
    2a10:	83 e8 01             	sub    eax,0x1
    2a13:	39 c2                	cmp    edx,eax
    2a15:	75 19                	jne    2a30 <__cxa_finalize@plt+0x1760>
    2a17:	83 7d e0 01          	cmp    DWORD PTR [rbp-0x20],0x1
    2a1b:	74 0c                	je     2a29 <__cxa_finalize@plt+0x1759>
    2a1d:	83 7d e0 02          	cmp    DWORD PTR [rbp-0x20],0x2
    2a21:	74 06                	je     2a29 <__cxa_finalize@plt+0x1759>
    2a23:	83 7d e0 03          	cmp    DWORD PTR [rbp-0x20],0x3
    2a27:	75 07                	jne    2a30 <__cxa_finalize@plt+0x1760>
    2a29:	b8 01 00 00 00       	mov    eax,0x1
    2a2e:	eb 05                	jmp    2a35 <__cxa_finalize@plt+0x1765>
    2a30:	b8 00 00 00 00       	mov    eax,0x0
    2a35:	5d                   	pop    rbp
    2a36:	c3                   	ret    
    2a37:	55                   	push   rbp
    2a38:	48 89 e5             	mov    rbp,rsp
    2a3b:	48 89 7d f8          	mov    QWORD PTR [rbp-0x8],rdi
    2a3f:	89 75 f4             	mov    DWORD PTR [rbp-0xc],esi
    2a42:	48 8b 45 f8          	mov    rax,QWORD PTR [rbp-0x8]
    2a46:	8b 55 f4             	mov    edx,DWORD PTR [rbp-0xc]
    2a49:	48 83 c2 5c          	add    rdx,0x5c
    2a4d:	8b 44 90 04          	mov    eax,DWORD PTR [rax+rdx*4+0x4]
    2a51:	85 c0                	test   eax,eax
    2a53:	0f 9f c0             	setg   al
    2a56:	5d                   	pop    rbp
    2a57:	c3                   	ret    
    2a58:	55                   	push   rbp
    2a59:	48 89 e5             	mov    rbp,rsp
    2a5c:	48 83 ec 28          	sub    rsp,0x28
    2a60:	48 89 7d e8          	mov    QWORD PTR [rbp-0x18],rdi
    2a64:	89 75 e4             	mov    DWORD PTR [rbp-0x1c],esi
    2a67:	89 55 e0             	mov    DWORD PTR [rbp-0x20],edx
    2a6a:	48 89 4d d8          	mov    QWORD PTR [rbp-0x28],rcx
    2a6e:	83 7d e0 07          	cmp    DWORD PTR [rbp-0x20],0x7
    2a72:	76 0a                	jbe    2a7e <__cxa_finalize@plt+0x17ae>
    2a74:	b8 00 00 00 00       	mov    eax,0x0
    2a79:	e9 a9 00 00 00       	jmp    2b27 <__cxa_finalize@plt+0x1857>
    2a7e:	8b 55 e0             	mov    edx,DWORD PTR [rbp-0x20]
    2a81:	8b 4d e4             	mov    ecx,DWORD PTR [rbp-0x1c]
    2a84:	48 8b 45 e8          	mov    rax,QWORD PTR [rbp-0x18]
    2a88:	89 ce                	mov    esi,ecx
    2a8a:	48 89 c7             	mov    rdi,rax
    2a8d:	e8 aa fe ff ff       	call   293c <__cxa_finalize@plt+0x166c>
    2a92:	84 c0                	test   al,al
    2a94:	74 0a                	je     2aa0 <__cxa_finalize@plt+0x17d0>
    2a96:	b8 00 00 00 00       	mov    eax,0x0
    2a9b:	e9 87 00 00 00       	jmp    2b27 <__cxa_finalize@plt+0x1857>
    2aa0:	8b 55 e0             	mov    edx,DWORD PTR [rbp-0x20]
    2aa3:	48 8b 45 e8          	mov    rax,QWORD PTR [rbp-0x18]
    2aa7:	89 d6                	mov    esi,edx
    2aa9:	48 89 c7             	mov    rdi,rax
    2aac:	e8 78 fd ff ff       	call   2829 <__cxa_finalize@plt+0x1559>
    2ab1:	89 45 fc             	mov    DWORD PTR [rbp-0x4],eax
    2ab4:	48 8b 4d e8          	mov    rcx,QWORD PTR [rbp-0x18]
    2ab8:	8b 55 e4             	mov    edx,DWORD PTR [rbp-0x1c]
    2abb:	48 89 d0             	mov    rax,rdx
    2abe:	48 c1 e0 02          	shl    rax,0x2
    2ac2:	48 01 d0             	add    rax,rdx
    2ac5:	48 c1 e0 03          	shl    rax,0x3
    2ac9:	48 01 c8             	add    rax,rcx
    2acc:	48 83 c0 26          	add    rax,0x26
    2ad0:	0f b7 00             	movzx  eax,WORD PTR [rax]
    2ad3:	0f b7 f0             	movzx  esi,ax
    2ad6:	48 8b 4d e8          	mov    rcx,QWORD PTR [rbp-0x18]
    2ada:	8b 55 e4             	mov    edx,DWORD PTR [rbp-0x1c]
    2add:	48 89 d0             	mov    rax,rdx
    2ae0:	48 c1 e0 02          	shl    rax,0x2
    2ae4:	48 01 d0             	add    rax,rdx
    2ae7:	48 c1 e0 03          	shl    rax,0x3
    2aeb:	48 01 c8             	add    rax,rcx
    2aee:	48 83 c0 24          	add    rax,0x24
    2af2:	0f b7 00             	movzx  eax,WORD PTR [rax]
    2af5:	0f b7 c8             	movzx  ecx,ax
    2af8:	48 8b 45 e8          	mov    rax,QWORD PTR [rbp-0x18]
    2afc:	89 f2                	mov    edx,esi
    2afe:	89 ce                	mov    esi,ecx
    2b00:	48 89 c7             	mov    rdi,rax
    2b03:	e8 b3 fd ff ff       	call   28bb <__cxa_finalize@plt+0x15eb>
    2b08:	8b 55 fc             	mov    edx,DWORD PTR [rbp-0x4]
    2b0b:	01 c2                	add    edx,eax
    2b0d:	48 8b 45 d8          	mov    rax,QWORD PTR [rbp-0x28]
    2b11:	89 10                	mov    DWORD PTR [rax],edx
    2b13:	48 8b 45 d8          	mov    rax,QWORD PTR [rbp-0x28]
    2b17:	8b 10                	mov    edx,DWORD PTR [rax]
    2b19:	48 8b 45 e8          	mov    rax,QWORD PTR [rbp-0x18]
    2b1d:	89 d6                	mov    esi,edx
    2b1f:	48 89 c7             	mov    rdi,rax
    2b22:	e8 10 ff ff ff       	call   2a37 <__cxa_finalize@plt+0x1767>
    2b27:	c9                   	leave  
    2b28:	c3                   	ret    
    2b29:	55                   	push   rbp
    2b2a:	48 89 e5             	mov    rbp,rsp
    2b2d:	48 83 ec 10          	sub    rsp,0x10
    2b31:	48 89 7d f8          	mov    QWORD PTR [rbp-0x8],rdi
    2b35:	89 75 f4             	mov    DWORD PTR [rbp-0xc],esi
    2b38:	89 55 f0             	mov    DWORD PTR [rbp-0x10],edx
    2b3b:	8b 55 f4             	mov    edx,DWORD PTR [rbp-0xc]
    2b3e:	48 89 d0             	mov    rax,rdx
    2b41:	48 c1 e0 02          	shl    rax,0x2
    2b45:	48 01 d0             	add    rax,rdx
    2b48:	48 c1 e0 03          	shl    rax,0x3
    2b4c:	48 8d 50 10          	lea    rdx,[rax+0x10]
    2b50:	48 8b 45 f8          	mov    rax,QWORD PTR [rbp-0x8]
    2b54:	48 01 d0             	add    rax,rdx
    2b57:	48 8d 48 16          	lea    rcx,[rax+0x16]
    2b5b:	8b 55 f4             	mov    edx,DWORD PTR [rbp-0xc]
    2b5e:	48 89 d0             	mov    rax,rdx
    2b61:	48 c1 e0 02          	shl    rax,0x2
    2b65:	48 01 d0             	add    rax,rdx
    2b68:	48 c1 e0 03          	shl    rax,0x3
    2b6c:	48 8d 50 10          	lea    rdx,[rax+0x10]
    2b70:	48 8b 45 f8          	mov    rax,QWORD PTR [rbp-0x8]
    2b74:	48 01 d0             	add    rax,rdx
    2b77:	48 8d 50 14          	lea    rdx,[rax+0x14]
    2b7b:	8b 75 f0             	mov    esi,DWORD PTR [rbp-0x10]
    2b7e:	48 8b 45 f8          	mov    rax,QWORD PTR [rbp-0x8]
    2b82:	48 89 c7             	mov    rdi,rax
    2b85:	e8 60 fd ff ff       	call   28ea <__cxa_finalize@plt+0x161a>
    2b8a:	48 8b 4d f8          	mov    rcx,QWORD PTR [rbp-0x8]
    2b8e:	8b 55 f4             	mov    edx,DWORD PTR [rbp-0xc]
    2b91:	48 89 d0             	mov    rax,rdx
    2b94:	48 c1 e0 02          	shl    rax,0x2
    2b98:	48 01 d0             	add    rax,rdx
    2b9b:	48 c1 e0 03          	shl    rax,0x3
    2b9f:	48 01 c8             	add    rax,rcx
    2ba2:	48 83 c0 18          	add    rax,0x18
    2ba6:	8b 10                	mov    edx,DWORD PTR [rax]
    2ba8:	48 8b 45 f8          	mov    rax,QWORD PTR [rbp-0x8]
    2bac:	8b 4d f0             	mov    ecx,DWORD PTR [rbp-0x10]
    2baf:	48 83 c1 5c          	add    rcx,0x5c
    2bb3:	8b 44 88 04          	mov    eax,DWORD PTR [rax+rcx*4+0x4]
    2bb7:	8d 0c 02             	lea    ecx,[rdx+rax*1]
    2bba:	48 8b 75 f8          	mov    rsi,QWORD PTR [rbp-0x8]
    2bbe:	8b 55 f4             	mov    edx,DWORD PTR [rbp-0xc]
    2bc1:	48 89 d0             	mov    rax,rdx
    2bc4:	48 c1 e0 02          	shl    rax,0x2
    2bc8:	48 01 d0             	add    rax,rdx
    2bcb:	48 c1 e0 03          	shl    rax,0x3
    2bcf:	48 01 f0             	add    rax,rsi
    2bd2:	48 83 c0 18          	add    rax,0x18
    2bd6:	89 08                	mov    DWORD PTR [rax],ecx
    2bd8:	8b 45 f4             	mov    eax,DWORD PTR [rbp-0xc]
    2bdb:	f7 d8                	neg    eax
    2bdd:	89 c1                	mov    ecx,eax
    2bdf:	48 8b 45 f8          	mov    rax,QWORD PTR [rbp-0x8]
    2be3:	8b 55 f0             	mov    edx,DWORD PTR [rbp-0x10]
    2be6:	48 83 c2 5c          	add    rdx,0x5c
    2bea:	89 4c 90 04          	mov    DWORD PTR [rax+rdx*4+0x4],ecx
    2bee:	90                   	nop
    2bef:	c9                   	leave  
    2bf0:	c3                   	ret    
    2bf1:	55                   	push   rbp
    2bf2:	48 89 e5             	mov    rbp,rsp
    2bf5:	48 83 ec 20          	sub    rsp,0x20
    2bf9:	48 89 7d e8          	mov    QWORD PTR [rbp-0x18],rdi
    2bfd:	c7 45 fc 00 00 00 00 	mov    DWORD PTR [rbp-0x4],0x0
    2c04:	e9 b9 00 00 00       	jmp    2cc2 <__cxa_finalize@plt+0x19f2>
    2c09:	48 8b 4d e8          	mov    rcx,QWORD PTR [rbp-0x18]
    2c0d:	8b 55 fc             	mov    edx,DWORD PTR [rbp-0x4]
    2c10:	48 89 d0             	mov    rax,rdx
    2c13:	48 c1 e0 02          	shl    rax,0x2
    2c17:	48 01 d0             	add    rax,rdx
    2c1a:	48 c1 e0 03          	shl    rax,0x3
    2c1e:	48 01 c8             	add    rax,rcx
    2c21:	48 83 c0 2c          	add    rax,0x2c
    2c25:	0f b6 00             	movzx  eax,BYTE PTR [rax]
    2c28:	84 c0                	test   al,al
    2c2a:	0f 85 8d 00 00 00    	jne    2cbd <__cxa_finalize@plt+0x19ed>
    2c30:	48 8b 4d e8          	mov    rcx,QWORD PTR [rbp-0x18]
    2c34:	8b 55 fc             	mov    edx,DWORD PTR [rbp-0x4]
    2c37:	48 89 d0             	mov    rax,rdx
    2c3a:	48 c1 e0 02          	shl    rax,0x2
    2c3e:	48 01 d0             	add    rax,rdx
    2c41:	48 c1 e0 03          	shl    rax,0x3
    2c45:	48 01 c8             	add    rax,rcx
    2c48:	48 83 c0 26          	add    rax,0x26
    2c4c:	0f b7 00             	movzx  eax,WORD PTR [rax]
    2c4f:	0f b7 f0             	movzx  esi,ax
    2c52:	48 8b 4d e8          	mov    rcx,QWORD PTR [rbp-0x18]
    2c56:	8b 55 fc             	mov    edx,DWORD PTR [rbp-0x4]
    2c59:	48 89 d0             	mov    rax,rdx
    2c5c:	48 c1 e0 02          	shl    rax,0x2
    2c60:	48 01 d0             	add    rax,rdx
    2c63:	48 c1 e0 03          	shl    rax,0x3
    2c67:	48 01 c8             	add    rax,rcx
    2c6a:	48 83 c0 24          	add    rax,0x24
    2c6e:	0f b7 00             	movzx  eax,WORD PTR [rax]
    2c71:	0f b7 c8             	movzx  ecx,ax
    2c74:	48 8b 45 e8          	mov    rax,QWORD PTR [rbp-0x18]
    2c78:	89 f2                	mov    edx,esi
    2c7a:	89 ce                	mov    esi,ecx
    2c7c:	48 89 c7             	mov    rdi,rax
    2c7f:	e8 37 fc ff ff       	call   28bb <__cxa_finalize@plt+0x15eb>
    2c84:	89 45 f8             	mov    DWORD PTR [rbp-0x8],eax
    2c87:	8b 55 f8             	mov    edx,DWORD PTR [rbp-0x8]
    2c8a:	48 8b 45 e8          	mov    rax,QWORD PTR [rbp-0x18]
    2c8e:	89 d6                	mov    esi,edx
    2c90:	48 89 c7             	mov    rdi,rax
    2c93:	e8 3e 00 00 00       	call   2cd6 <__cxa_finalize@plt+0x1a06>
    2c98:	85 c0                	test   eax,eax
    2c9a:	0f 94 c1             	sete   cl
    2c9d:	48 8b 75 e8          	mov    rsi,QWORD PTR [rbp-0x18]
    2ca1:	8b 55 fc             	mov    edx,DWORD PTR [rbp-0x4]
    2ca4:	48 89 d0             	mov    rax,rdx
    2ca7:	48 c1 e0 02          	shl    rax,0x2
    2cab:	48 01 d0             	add    rax,rdx
    2cae:	48 c1 e0 03          	shl    rax,0x3
    2cb2:	48 01 f0             	add    rax,rsi
    2cb5:	48 83 c0 2c          	add    rax,0x2c
    2cb9:	88 08                	mov    BYTE PTR [rax],cl
    2cbb:	eb 01                	jmp    2cbe <__cxa_finalize@plt+0x19ee>
    2cbd:	90                   	nop
    2cbe:	83 45 fc 01          	add    DWORD PTR [rbp-0x4],0x1
    2cc2:	48 8b 45 e8          	mov    rax,QWORD PTR [rbp-0x18]
    2cc6:	8b 40 04             	mov    eax,DWORD PTR [rax+0x4]
    2cc9:	39 45 fc             	cmp    DWORD PTR [rbp-0x4],eax
    2ccc:	0f 82 37 ff ff ff    	jb     2c09 <__cxa_finalize@plt+0x1939>
    2cd2:	90                   	nop
    2cd3:	90                   	nop
    2cd4:	c9                   	leave  
    2cd5:	c3                   	ret    
    2cd6:	55                   	push   rbp
    2cd7:	48 89 e5             	mov    rbp,rsp
    2cda:	48 83 ec 20          	sub    rsp,0x20
    2cde:	48 89 7d e8          	mov    QWORD PTR [rbp-0x18],rdi
    2ce2:	89 75 e4             	mov    DWORD PTR [rbp-0x1c],esi
    2ce5:	48 8d 4d fc          	lea    rcx,[rbp-0x4]
    2ce9:	48 8d 55 fe          	lea    rdx,[rbp-0x2]
    2ced:	8b 75 e4             	mov    esi,DWORD PTR [rbp-0x1c]
    2cf0:	48 8b 45 e8          	mov    rax,QWORD PTR [rbp-0x18]
    2cf4:	48 89 c7             	mov    rdi,rax
    2cf7:	e8 ee fb ff ff       	call   28ea <__cxa_finalize@plt+0x161a>
    2cfc:	0f b7 45 fc          	movzx  eax,WORD PTR [rbp-0x4]
    2d00:	66 85 c0             	test   ax,ax
    2d03:	0f 84 bd 00 00 00    	je     2dc6 <__cxa_finalize@plt+0x1af6>
    2d09:	48 8b 45 e8          	mov    rax,QWORD PTR [rbp-0x18]
    2d0d:	be 00 00 00 00       	mov    esi,0x0
    2d12:	48 89 c7             	mov    rdi,rax
    2d15:	e8 0f fb ff ff       	call   2829 <__cxa_finalize@plt+0x1559>
    2d1a:	89 c2                	mov    edx,eax
    2d1c:	8b 45 e4             	mov    eax,DWORD PTR [rbp-0x1c]
    2d1f:	01 c2                	add    edx,eax
    2d21:	48 8b 45 e8          	mov    rax,QWORD PTR [rbp-0x18]
    2d25:	89 d6                	mov    esi,edx
    2d27:	48 89 c7             	mov    rdi,rax
    2d2a:	e8 08 fd ff ff       	call   2a37 <__cxa_finalize@plt+0x1767>
    2d2f:	84 c0                	test   al,al
    2d31:	74 0a                	je     2d3d <__cxa_finalize@plt+0x1a6d>
    2d33:	b8 01 00 00 00       	mov    eax,0x1
    2d38:	e9 eb 01 00 00       	jmp    2f28 <__cxa_finalize@plt+0x1c58>
    2d3d:	0f b7 45 fe          	movzx  eax,WORD PTR [rbp-0x2]
    2d41:	66 85 c0             	test   ax,ax
    2d44:	74 34                	je     2d7a <__cxa_finalize@plt+0x1aaa>
    2d46:	48 8b 45 e8          	mov    rax,QWORD PTR [rbp-0x18]
    2d4a:	be 07 00 00 00       	mov    esi,0x7
    2d4f:	48 89 c7             	mov    rdi,rax
    2d52:	e8 d2 fa ff ff       	call   2829 <__cxa_finalize@plt+0x1559>
    2d57:	89 c2                	mov    edx,eax
    2d59:	8b 45 e4             	mov    eax,DWORD PTR [rbp-0x1c]
    2d5c:	01 c2                	add    edx,eax
    2d5e:	48 8b 45 e8          	mov    rax,QWORD PTR [rbp-0x18]
    2d62:	89 d6                	mov    esi,edx
    2d64:	48 89 c7             	mov    rdi,rax
    2d67:	e8 cb fc ff ff       	call   2a37 <__cxa_finalize@plt+0x1767>
    2d6c:	84 c0                	test   al,al
    2d6e:	74 0a                	je     2d7a <__cxa_finalize@plt+0x1aaa>
    2d70:	b8 01 00 00 00       	mov    eax,0x1
    2d75:	e9 ae 01 00 00       	jmp    2f28 <__cxa_finalize@plt+0x1c58>
    2d7a:	0f b7 45 fe          	movzx  eax,WORD PTR [rbp-0x2]
    2d7e:	0f b7 d0             	movzx  edx,ax
    2d81:	48 8b 45 e8          	mov    rax,QWORD PTR [rbp-0x18]
    2d85:	0f b7 00             	movzx  eax,WORD PTR [rax]
    2d88:	0f b7 c0             	movzx  eax,ax
    2d8b:	83 e8 01             	sub    eax,0x1
    2d8e:	39 c2                	cmp    edx,eax
    2d90:	7d 34                	jge    2dc6 <__cxa_finalize@plt+0x1af6>
    2d92:	48 8b 45 e8          	mov    rax,QWORD PTR [rbp-0x18]
    2d96:	be 01 00 00 00       	mov    esi,0x1
    2d9b:	48 89 c7             	mov    rdi,rax
    2d9e:	e8 86 fa ff ff       	call   2829 <__cxa_finalize@plt+0x1559>
    2da3:	89 c2                	mov    edx,eax
    2da5:	8b 45 e4             	mov    eax,DWORD PTR [rbp-0x1c]
    2da8:	01 c2                	add    edx,eax
    2daa:	48 8b 45 e8          	mov    rax,QWORD PTR [rbp-0x18]
    2dae:	89 d6                	mov    esi,edx
    2db0:	48 89 c7             	mov    rdi,rax
    2db3:	e8 7f fc ff ff       	call   2a37 <__cxa_finalize@plt+0x1767>
    2db8:	84 c0                	test   al,al
    2dba:	74 0a                	je     2dc6 <__cxa_finalize@plt+0x1af6>
    2dbc:	b8 01 00 00 00       	mov    eax,0x1
    2dc1:	e9 62 01 00 00       	jmp    2f28 <__cxa_finalize@plt+0x1c58>
    2dc6:	0f b7 45 fc          	movzx  eax,WORD PTR [rbp-0x4]
    2dca:	0f b7 d0             	movzx  edx,ax
    2dcd:	48 8b 45 e8          	mov    rax,QWORD PTR [rbp-0x18]
    2dd1:	0f b7 40 02          	movzx  eax,WORD PTR [rax+0x2]
    2dd5:	0f b7 c0             	movzx  eax,ax
    2dd8:	83 e8 01             	sub    eax,0x1
    2ddb:	39 c2                	cmp    edx,eax
    2ddd:	0f 8d bd 00 00 00    	jge    2ea0 <__cxa_finalize@plt+0x1bd0>
    2de3:	48 8b 45 e8          	mov    rax,QWORD PTR [rbp-0x18]
    2de7:	be 04 00 00 00       	mov    esi,0x4
    2dec:	48 89 c7             	mov    rdi,rax
    2def:	e8 35 fa ff ff       	call   2829 <__cxa_finalize@plt+0x1559>
    2df4:	89 c2                	mov    edx,eax
    2df6:	8b 45 e4             	mov    eax,DWORD PTR [rbp-0x1c]
    2df9:	01 c2                	add    edx,eax
    2dfb:	48 8b 45 e8          	mov    rax,QWORD PTR [rbp-0x18]
    2dff:	89 d6                	mov    esi,edx
    2e01:	48 89 c7             	mov    rdi,rax
    2e04:	e8 2e fc ff ff       	call   2a37 <__cxa_finalize@plt+0x1767>
    2e09:	84 c0                	test   al,al
    2e0b:	74 0a                	je     2e17 <__cxa_finalize@plt+0x1b47>
    2e0d:	b8 01 00 00 00       	mov    eax,0x1
    2e12:	e9 11 01 00 00       	jmp    2f28 <__cxa_finalize@plt+0x1c58>
    2e17:	0f b7 45 fe          	movzx  eax,WORD PTR [rbp-0x2]
    2e1b:	66 85 c0             	test   ax,ax
    2e1e:	74 34                	je     2e54 <__cxa_finalize@plt+0x1b84>
    2e20:	48 8b 45 e8          	mov    rax,QWORD PTR [rbp-0x18]
    2e24:	be 05 00 00 00       	mov    esi,0x5
    2e29:	48 89 c7             	mov    rdi,rax
    2e2c:	e8 f8 f9 ff ff       	call   2829 <__cxa_finalize@plt+0x1559>
    2e31:	89 c2                	mov    edx,eax
    2e33:	8b 45 e4             	mov    eax,DWORD PTR [rbp-0x1c]
    2e36:	01 c2                	add    edx,eax
    2e38:	48 8b 45 e8          	mov    rax,QWORD PTR [rbp-0x18]
    2e3c:	89 d6                	mov    esi,edx
    2e3e:	48 89 c7             	mov    rdi,rax
    2e41:	e8 f1 fb ff ff       	call   2a37 <__cxa_finalize@plt+0x1767>
    2e46:	84 c0                	test   al,al
    2e48:	74 0a                	je     2e54 <__cxa_finalize@plt+0x1b84>
    2e4a:	b8 01 00 00 00       	mov    eax,0x1
    2e4f:	e9 d4 00 00 00       	jmp    2f28 <__cxa_finalize@plt+0x1c58>
    2e54:	0f b7 45 fe          	movzx  eax,WORD PTR [rbp-0x2]
    2e58:	0f b7 d0             	movzx  edx,ax
    2e5b:	48 8b 45 e8          	mov    rax,QWORD PTR [rbp-0x18]
    2e5f:	0f b7 00             	movzx  eax,WORD PTR [rax]
    2e62:	0f b7 c0             	movzx  eax,ax
    2e65:	83 e8 01             	sub    eax,0x1
    2e68:	39 c2                	cmp    edx,eax
    2e6a:	7d 34                	jge    2ea0 <__cxa_finalize@plt+0x1bd0>
    2e6c:	48 8b 45 e8          	mov    rax,QWORD PTR [rbp-0x18]
    2e70:	be 03 00 00 00       	mov    esi,0x3
    2e75:	48 89 c7             	mov    rdi,rax
    2e78:	e8 ac f9 ff ff       	call   2829 <__cxa_finalize@plt+0x1559>
    2e7d:	89 c2                	mov    edx,eax
    2e7f:	8b 45 e4             	mov    eax,DWORD PTR [rbp-0x1c]
    2e82:	01 c2                	add    edx,eax
    2e84:	48 8b 45 e8          	mov    rax,QWORD PTR [rbp-0x18]
    2e88:	89 d6                	mov    esi,edx
    2e8a:	48 89 c7             	mov    rdi,rax
    2e8d:	e8 a5 fb ff ff       	call   2a37 <__cxa_finalize@plt+0x1767>
    2e92:	84 c0                	test   al,al
    2e94:	74 0a                	je     2ea0 <__cxa_finalize@plt+0x1bd0>
    2e96:	b8 01 00 00 00       	mov    eax,0x1
    2e9b:	e9 88 00 00 00       	jmp    2f28 <__cxa_finalize@plt+0x1c58>
    2ea0:	0f b7 45 fe          	movzx  eax,WORD PTR [rbp-0x2]
    2ea4:	66 85 c0             	test   ax,ax
    2ea7:	74 31                	je     2eda <__cxa_finalize@plt+0x1c0a>
    2ea9:	48 8b 45 e8          	mov    rax,QWORD PTR [rbp-0x18]
    2ead:	be 06 00 00 00       	mov    esi,0x6
    2eb2:	48 89 c7             	mov    rdi,rax
    2eb5:	e8 6f f9 ff ff       	call   2829 <__cxa_finalize@plt+0x1559>
    2eba:	89 c2                	mov    edx,eax
    2ebc:	8b 45 e4             	mov    eax,DWORD PTR [rbp-0x1c]
    2ebf:	01 c2                	add    edx,eax
    2ec1:	48 8b 45 e8          	mov    rax,QWORD PTR [rbp-0x18]
    2ec5:	89 d6                	mov    esi,edx
    2ec7:	48 89 c7             	mov    rdi,rax
    2eca:	e8 68 fb ff ff       	call   2a37 <__cxa_finalize@plt+0x1767>
    2ecf:	84 c0                	test   al,al
    2ed1:	74 07                	je     2eda <__cxa_finalize@plt+0x1c0a>
    2ed3:	b8 01 00 00 00       	mov    eax,0x1
    2ed8:	eb 4e                	jmp    2f28 <__cxa_finalize@plt+0x1c58>
    2eda:	0f b7 45 fe          	movzx  eax,WORD PTR [rbp-0x2]
    2ede:	0f b7 d0             	movzx  edx,ax
    2ee1:	48 8b 45 e8          	mov    rax,QWORD PTR [rbp-0x18]
    2ee5:	0f b7 00             	movzx  eax,WORD PTR [rax]
    2ee8:	0f b7 c0             	movzx  eax,ax
    2eeb:	83 e8 01             	sub    eax,0x1
    2eee:	39 c2                	cmp    edx,eax
    2ef0:	7d 31                	jge    2f23 <__cxa_finalize@plt+0x1c53>
    2ef2:	48 8b 45 e8          	mov    rax,QWORD PTR [rbp-0x18]
    2ef6:	be 02 00 00 00       	mov    esi,0x2
    2efb:	48 89 c7             	mov    rdi,rax
    2efe:	e8 26 f9 ff ff       	call   2829 <__cxa_finalize@plt+0x1559>
    2f03:	89 c2                	mov    edx,eax
    2f05:	8b 45 e4             	mov    eax,DWORD PTR [rbp-0x1c]
    2f08:	01 c2                	add    edx,eax
    2f0a:	48 8b 45 e8          	mov    rax,QWORD PTR [rbp-0x18]
    2f0e:	89 d6                	mov    esi,edx
    2f10:	48 89 c7             	mov    rdi,rax
    2f13:	e8 1f fb ff ff       	call   2a37 <__cxa_finalize@plt+0x1767>
    2f18:	84 c0                	test   al,al
    2f1a:	74 07                	je     2f23 <__cxa_finalize@plt+0x1c53>
    2f1c:	b8 01 00 00 00       	mov    eax,0x1
    2f21:	eb 05                	jmp    2f28 <__cxa_finalize@plt+0x1c58>
    2f23:	b8 00 00 00 00       	mov    eax,0x0
    2f28:	c9                   	leave  
    2f29:	c3                   	ret    
    2f2a:	55                   	push   rbp
    2f2b:	48 89 e5             	mov    rbp,rsp
    2f2e:	48 89 7d e8          	mov    QWORD PTR [rbp-0x18],rdi
    2f32:	c7 45 fc 00 00 00 00 	mov    DWORD PTR [rbp-0x4],0x0
    2f39:	eb 31                	jmp    2f6c <__cxa_finalize@plt+0x1c9c>
    2f3b:	48 8b 4d e8          	mov    rcx,QWORD PTR [rbp-0x18]
    2f3f:	8b 55 fc             	mov    edx,DWORD PTR [rbp-0x4]
    2f42:	48 89 d0             	mov    rax,rdx
    2f45:	48 c1 e0 02          	shl    rax,0x2
    2f49:	48 01 d0             	add    rax,rdx
    2f4c:	48 c1 e0 03          	shl    rax,0x3
    2f50:	48 01 c8             	add    rax,rcx
    2f53:	48 83 c0 2c          	add    rax,0x2c
    2f57:	0f b6 00             	movzx  eax,BYTE PTR [rax]
    2f5a:	83 f0 01             	xor    eax,0x1
    2f5d:	84 c0                	test   al,al
    2f5f:	74 07                	je     2f68 <__cxa_finalize@plt+0x1c98>
    2f61:	b8 00 00 00 00       	mov    eax,0x0
    2f66:	eb 15                	jmp    2f7d <__cxa_finalize@plt+0x1cad>
    2f68:	83 45 fc 01          	add    DWORD PTR [rbp-0x4],0x1
    2f6c:	48 8b 45 e8          	mov    rax,QWORD PTR [rbp-0x18]
    2f70:	8b 40 04             	mov    eax,DWORD PTR [rax+0x4]
    2f73:	39 45 fc             	cmp    DWORD PTR [rbp-0x4],eax
    2f76:	72 c3                	jb     2f3b <__cxa_finalize@plt+0x1c6b>
    2f78:	b8 01 00 00 00       	mov    eax,0x1
    2f7d:	5d                   	pop    rbp
    2f7e:	c3                   	ret    
    2f7f:	55                   	push   rbp
    2f80:	48 89 e5             	mov    rbp,rsp
    2f83:	48 83 ec 20          	sub    rsp,0x20
    2f87:	48 89 7d e8          	mov    QWORD PTR [rbp-0x18],rdi
    2f8b:	e8 d0 e0 ff ff       	call   1060 <getpid@plt>
    2f90:	89 45 f8             	mov    DWORD PTR [rbp-0x8],eax
    2f93:	c7 45 fc 00 00 00 00 	mov    DWORD PTR [rbp-0x4],0x0
    2f9a:	eb 2c                	jmp    2fc8 <__cxa_finalize@plt+0x1cf8>
    2f9c:	48 8b 4d e8          	mov    rcx,QWORD PTR [rbp-0x18]
    2fa0:	8b 55 fc             	mov    edx,DWORD PTR [rbp-0x4]
    2fa3:	48 89 d0             	mov    rax,rdx
    2fa6:	48 c1 e0 02          	shl    rax,0x2
    2faa:	48 01 d0             	add    rax,rdx
    2fad:	48 c1 e0 03          	shl    rax,0x3
    2fb1:	48 01 c8             	add    rax,rcx
    2fb4:	48 83 c0 28          	add    rax,0x28
    2fb8:	8b 00                	mov    eax,DWORD PTR [rax]
    2fba:	39 45 f8             	cmp    DWORD PTR [rbp-0x8],eax
    2fbd:	75 05                	jne    2fc4 <__cxa_finalize@plt+0x1cf4>
    2fbf:	8b 45 fc             	mov    eax,DWORD PTR [rbp-0x4]
    2fc2:	eb 15                	jmp    2fd9 <__cxa_finalize@plt+0x1d09>
    2fc4:	83 45 fc 01          	add    DWORD PTR [rbp-0x4],0x1
    2fc8:	48 8b 45 e8          	mov    rax,QWORD PTR [rbp-0x18]
    2fcc:	8b 40 04             	mov    eax,DWORD PTR [rax+0x4]
    2fcf:	39 45 fc             	cmp    DWORD PTR [rbp-0x4],eax
    2fd2:	72 c8                	jb     2f9c <__cxa_finalize@plt+0x1ccc>
    2fd4:	b8 ff ff ff ff       	mov    eax,0xffffffff
    2fd9:	c9                   	leave  
    2fda:	c3                   	ret    
    2fdb:	55                   	push   rbp
    2fdc:	48 89 e5             	mov    rbp,rsp
    2fdf:	48 83 ec 10          	sub    rsp,0x10
    2fe3:	48 89 7d f8          	mov    QWORD PTR [rbp-0x8],rdi
    2fe7:	48 89 75 f0          	mov    QWORD PTR [rbp-0x10],rsi
    2feb:	48 8b 45 f0          	mov    rax,QWORD PTR [rbp-0x10]
    2fef:	48 89 c7             	mov    rdi,rax
    2ff2:	e8 91 03 00 00       	call   3388 <__cxa_finalize@plt+0x20b8>
    2ff7:	48 8b 45 f8          	mov    rax,QWORD PTR [rbp-0x8]
    2ffb:	c6 80 70 01 00 00 01 	mov    BYTE PTR [rax+0x170],0x1
    3002:	48 8b 45 f0          	mov    rax,QWORD PTR [rbp-0x10]
    3006:	48 89 c7             	mov    rdi,rax
    3009:	e8 b9 03 00 00       	call   33c7 <__cxa_finalize@plt+0x20f7>
    300e:	90                   	nop
    300f:	c9                   	leave  
    3010:	c3                   	ret    
    3011:	55                   	push   rbp
    3012:	48 89 e5             	mov    rbp,rsp
    3015:	48 83 ec 20          	sub    rsp,0x20
    3019:	48 89 7d e8          	mov    QWORD PTR [rbp-0x18],rdi
    301d:	48 89 75 e0          	mov    QWORD PTR [rbp-0x20],rsi
    3021:	48 8b 45 e8          	mov    rax,QWORD PTR [rbp-0x18]
    3025:	0f b7 10             	movzx  edx,WORD PTR [rax]
    3028:	48 8b 45 e0          	mov    rax,QWORD PTR [rbp-0x20]
    302c:	66 89 10             	mov    WORD PTR [rax],dx
    302f:	48 8b 45 e8          	mov    rax,QWORD PTR [rbp-0x18]
    3033:	0f b7 50 02          	movzx  edx,WORD PTR [rax+0x2]
    3037:	48 8b 45 e0          	mov    rax,QWORD PTR [rbp-0x20]
    303b:	66 89 50 02          	mov    WORD PTR [rax+0x2],dx
    303f:	48 8b 45 e8          	mov    rax,QWORD PTR [rbp-0x18]
    3043:	8b 50 10             	mov    edx,DWORD PTR [rax+0x10]
    3046:	48 8b 45 e0          	mov    rax,QWORD PTR [rbp-0x20]
    304a:	89 50 04             	mov    DWORD PTR [rax+0x4],edx
    304d:	48 8b 45 e0          	mov    rax,QWORD PTR [rbp-0x20]
    3051:	c6 80 70 01 00 00 00 	mov    BYTE PTR [rax+0x170],0x0
    3058:	48 8b 45 e0          	mov    rax,QWORD PTR [rbp-0x20]
    305c:	48 83 c0 08          	add    rax,0x8
    3060:	ba 68 01 00 00       	mov    edx,0x168
    3065:	be 00 00 00 00       	mov    esi,0x0
    306a:	48 89 c7             	mov    rdi,rax
    306d:	e8 6e e0 ff ff       	call   10e0 <memset@plt>
    3072:	c7 45 fc 00 00 00 00 	mov    DWORD PTR [rbp-0x4],0x0
    3079:	eb 50                	jmp    30cb <__cxa_finalize@plt+0x1dfb>
    307b:	48 8b 45 e8          	mov    rax,QWORD PTR [rbp-0x18]
    307f:	48 8b 40 18          	mov    rax,QWORD PTR [rax+0x18]
    3083:	8b 55 fc             	mov    edx,DWORD PTR [rbp-0x4]
    3086:	48 c1 e2 03          	shl    rdx,0x3
    308a:	48 01 d0             	add    rax,rdx
    308d:	48 8b 00             	mov    rax,QWORD PTR [rax]
    3090:	48 89 c7             	mov    rdi,rax
    3093:	e8 e8 e0 ff ff       	call   1180 <__xpg_basename@plt>
    3098:	48 89 c1             	mov    rcx,rax
    309b:	8b 55 fc             	mov    edx,DWORD PTR [rbp-0x4]
    309e:	48 89 d0             	mov    rax,rdx
    30a1:	48 c1 e0 02          	shl    rax,0x2
    30a5:	48 01 d0             	add    rax,rdx
    30a8:	48 c1 e0 03          	shl    rax,0x3
    30ac:	48 8b 55 e0          	mov    rdx,QWORD PTR [rbp-0x20]
    30b0:	48 01 d0             	add    rax,rdx
    30b3:	48 83 c0 08          	add    rax,0x8
    30b7:	ba 10 00 00 00       	mov    edx,0x10
    30bc:	48 89 ce             	mov    rsi,rcx
    30bf:	48 89 c7             	mov    rdi,rax
    30c2:	e8 69 df ff ff       	call   1030 <strncpy@plt>
    30c7:	83 45 fc 01          	add    DWORD PTR [rbp-0x4],0x1
    30cb:	48 8b 45 e8          	mov    rax,QWORD PTR [rbp-0x18]
    30cf:	8b 40 10             	mov    eax,DWORD PTR [rax+0x10]
    30d2:	39 45 fc             	cmp    DWORD PTR [rbp-0x4],eax
    30d5:	72 a4                	jb     307b <__cxa_finalize@plt+0x1dab>
    30d7:	48 8b 45 e8          	mov    rax,QWORD PTR [rbp-0x18]
    30db:	8b 40 08             	mov    eax,DWORD PTR [rax+0x8]
    30de:	89 c7                	mov    edi,eax
    30e0:	e8 5b e0 ff ff       	call   1140 <srand@plt>
    30e5:	c7 45 f8 00 00 00 00 	mov    DWORD PTR [rbp-0x8],0x0
    30ec:	eb 73                	jmp    3161 <__cxa_finalize@plt+0x1e91>
    30ee:	c7 45 f4 00 00 00 00 	mov    DWORD PTR [rbp-0xc],0x0
    30f5:	eb 57                	jmp    314e <__cxa_finalize@plt+0x1e7e>
    30f7:	e8 b4 e1 ff ff       	call   12b0 <rand@plt>
    30fc:	89 c1                	mov    ecx,eax
    30fe:	48 63 c1             	movsxd rax,ecx
    3101:	48 69 c0 39 8e e3 38 	imul   rax,rax,0x38e38e39
    3108:	48 c1 e8 20          	shr    rax,0x20
    310c:	89 c2                	mov    edx,eax
    310e:	d1 fa                	sar    edx,1
    3110:	89 c8                	mov    eax,ecx
    3112:	c1 f8 1f             	sar    eax,0x1f
    3115:	29 c2                	sub    edx,eax
    3117:	89 d0                	mov    eax,edx
    3119:	c1 e0 03             	shl    eax,0x3
    311c:	01 d0                	add    eax,edx
    311e:	29 c1                	sub    ecx,eax
    3120:	89 ca                	mov    edx,ecx
    3122:	48 8b 45 e0          	mov    rax,QWORD PTR [rbp-0x20]
    3126:	0f b7 00             	movzx  eax,WORD PTR [rax]
    3129:	0f b7 c0             	movzx  eax,ax
    312c:	0f af 45 f8          	imul   eax,DWORD PTR [rbp-0x8]
    3130:	89 c1                	mov    ecx,eax
    3132:	8b 45 f4             	mov    eax,DWORD PTR [rbp-0xc]
    3135:	8d 34 01             	lea    esi,[rcx+rax*1]
    3138:	8d 4a 01             	lea    ecx,[rdx+0x1]
    313b:	48 8b 45 e0          	mov    rax,QWORD PTR [rbp-0x20]
    313f:	48 63 d6             	movsxd rdx,esi
    3142:	48 83 c2 5c          	add    rdx,0x5c
    3146:	89 4c 90 04          	mov    DWORD PTR [rax+rdx*4+0x4],ecx
    314a:	83 45 f4 01          	add    DWORD PTR [rbp-0xc],0x1
    314e:	48 8b 45 e0          	mov    rax,QWORD PTR [rbp-0x20]
    3152:	0f b7 00             	movzx  eax,WORD PTR [rax]
    3155:	0f b7 c0             	movzx  eax,ax
    3158:	39 45 f4             	cmp    DWORD PTR [rbp-0xc],eax
    315b:	7c 9a                	jl     30f7 <__cxa_finalize@plt+0x1e27>
    315d:	83 45 f8 01          	add    DWORD PTR [rbp-0x8],0x1
    3161:	48 8b 45 e0          	mov    rax,QWORD PTR [rbp-0x20]
    3165:	0f b7 40 02          	movzx  eax,WORD PTR [rax+0x2]
    3169:	0f b7 c0             	movzx  eax,ax
    316c:	39 45 f8             	cmp    DWORD PTR [rbp-0x8],eax
    316f:	0f 8c 79 ff ff ff    	jl     30ee <__cxa_finalize@plt+0x1e1e>
    3175:	90                   	nop
    3176:	90                   	nop
    3177:	c9                   	leave  
    3178:	c3                   	ret    
    3179:	55                   	push   rbp
    317a:	48 89 e5             	mov    rbp,rsp
    317d:	48 83 ec 10          	sub    rsp,0x10
    3181:	48 89 7d f8          	mov    QWORD PTR [rbp-0x8],rdi
    3185:	48 8b 45 f8          	mov    rax,QWORD PTR [rbp-0x8]
    3189:	ba 00 00 00 00       	mov    edx,0x0
    318e:	be 01 00 00 00       	mov    esi,0x1
    3193:	48 89 c7             	mov    rdi,rax
    3196:	e8 25 e0 ff ff       	call   11c0 <sem_init@plt>
    319b:	83 f8 ff             	cmp    eax,0xffffffff
    319e:	75 19                	jne    31b9 <__cxa_finalize@plt+0x1ee9>
    31a0:	48 8d 05 41 0f 00 00 	lea    rax,[rip+0xf41]        # 40e8 <__cxa_finalize@plt+0x2e18>
    31a7:	48 89 c7             	mov    rdi,rax
    31aa:	e8 31 e0 ff ff       	call   11e0 <perror@plt>
    31af:	bf 01 00 00 00       	mov    edi,0x1
    31b4:	e8 67 e0 ff ff       	call   1220 <exit@plt>
    31b9:	48 8b 45 f8          	mov    rax,QWORD PTR [rbp-0x8]
    31bd:	48 83 c0 20          	add    rax,0x20
    31c1:	ba 00 00 00 00       	mov    edx,0x0
    31c6:	be 01 00 00 00       	mov    esi,0x1
    31cb:	48 89 c7             	mov    rdi,rax
    31ce:	e8 ed df ff ff       	call   11c0 <sem_init@plt>
    31d3:	83 f8 ff             	cmp    eax,0xffffffff
    31d6:	75 19                	jne    31f1 <__cxa_finalize@plt+0x1f21>
    31d8:	48 8d 05 09 0f 00 00 	lea    rax,[rip+0xf09]        # 40e8 <__cxa_finalize@plt+0x2e18>
    31df:	48 89 c7             	mov    rdi,rax
    31e2:	e8 f9 df ff ff       	call   11e0 <perror@plt>
    31e7:	bf 01 00 00 00       	mov    edi,0x1
    31ec:	e8 2f e0 ff ff       	call   1220 <exit@plt>
    31f1:	48 8b 45 f8          	mov    rax,QWORD PTR [rbp-0x8]
    31f5:	48 83 c0 40          	add    rax,0x40
    31f9:	ba 01 00 00 00       	mov    edx,0x1
    31fe:	be 01 00 00 00       	mov    esi,0x1
    3203:	48 89 c7             	mov    rdi,rax
    3206:	e8 b5 df ff ff       	call   11c0 <sem_init@plt>
    320b:	83 f8 ff             	cmp    eax,0xffffffff
    320e:	75 19                	jne    3229 <__cxa_finalize@plt+0x1f59>
    3210:	48 8d 05 d1 0e 00 00 	lea    rax,[rip+0xed1]        # 40e8 <__cxa_finalize@plt+0x2e18>
    3217:	48 89 c7             	mov    rdi,rax
    321a:	e8 c1 df ff ff       	call   11e0 <perror@plt>
    321f:	bf 01 00 00 00       	mov    edi,0x1
    3224:	e8 f7 df ff ff       	call   1220 <exit@plt>
    3229:	48 8b 45 f8          	mov    rax,QWORD PTR [rbp-0x8]
    322d:	48 83 c0 60          	add    rax,0x60
    3231:	ba 01 00 00 00       	mov    edx,0x1
    3236:	be 01 00 00 00       	mov    esi,0x1
    323b:	48 89 c7             	mov    rdi,rax
    323e:	e8 7d df ff ff       	call   11c0 <sem_init@plt>
    3243:	83 f8 ff             	cmp    eax,0xffffffff
    3246:	75 19                	jne    3261 <__cxa_finalize@plt+0x1f91>
    3248:	48 8d 05 99 0e 00 00 	lea    rax,[rip+0xe99]        # 40e8 <__cxa_finalize@plt+0x2e18>
    324f:	48 89 c7             	mov    rdi,rax
    3252:	e8 89 df ff ff       	call   11e0 <perror@plt>
    3257:	bf 01 00 00 00       	mov    edi,0x1
    325c:	e8 bf df ff ff       	call   1220 <exit@plt>
    3261:	48 8b 45 f8          	mov    rax,QWORD PTR [rbp-0x8]
    3265:	48 83 e8 80          	sub    rax,0xffffffffffffff80
    3269:	ba 01 00 00 00       	mov    edx,0x1
    326e:	be 01 00 00 00       	mov    esi,0x1
    3273:	48 89 c7             	mov    rdi,rax
    3276:	e8 45 df ff ff       	call   11c0 <sem_init@plt>
    327b:	83 f8 ff             	cmp    eax,0xffffffff
    327e:	75 19                	jne    3299 <__cxa_finalize@plt+0x1fc9>
    3280:	48 8d 05 61 0e 00 00 	lea    rax,[rip+0xe61]        # 40e8 <__cxa_finalize@plt+0x2e18>
    3287:	48 89 c7             	mov    rdi,rax
    328a:	e8 51 df ff ff       	call   11e0 <perror@plt>
    328f:	bf 01 00 00 00       	mov    edi,0x1
    3294:	e8 87 df ff ff       	call   1220 <exit@plt>
    3299:	48 8b 45 f8          	mov    rax,QWORD PTR [rbp-0x8]
    329d:	c7 80 a0 00 00 00 00 	mov    DWORD PTR [rax+0xa0],0x0
    32a4:	00 00 00 
    32a7:	90                   	nop
    32a8:	c9                   	leave  
    32a9:	c3                   	ret    
    32aa:	55                   	push   rbp
    32ab:	48 89 e5             	mov    rbp,rsp
    32ae:	48 83 ec 10          	sub    rsp,0x10
    32b2:	48 89 7d f8          	mov    QWORD PTR [rbp-0x8],rdi
    32b6:	48 8b 45 f8          	mov    rax,QWORD PTR [rbp-0x8]
    32ba:	48 83 c0 40          	add    rax,0x40
    32be:	48 89 c7             	mov    rdi,rax
    32c1:	e8 7a dd ff ff       	call   1040 <sem_wait@plt>
    32c6:	48 8b 45 f8          	mov    rax,QWORD PTR [rbp-0x8]
    32ca:	48 83 c0 40          	add    rax,0x40
    32ce:	48 89 c7             	mov    rdi,rax
    32d1:	e8 3a de ff ff       	call   1110 <sem_post@plt>
    32d6:	48 8b 45 f8          	mov    rax,QWORD PTR [rbp-0x8]
    32da:	48 83 e8 80          	sub    rax,0xffffffffffffff80
    32de:	48 89 c7             	mov    rdi,rax
    32e1:	e8 5a dd ff ff       	call   1040 <sem_wait@plt>
    32e6:	48 8b 45 f8          	mov    rax,QWORD PTR [rbp-0x8]
    32ea:	8b 80 a0 00 00 00    	mov    eax,DWORD PTR [rax+0xa0]
    32f0:	8d 48 01             	lea    ecx,[rax+0x1]
    32f3:	48 8b 55 f8          	mov    rdx,QWORD PTR [rbp-0x8]
    32f7:	89 8a a0 00 00 00    	mov    DWORD PTR [rdx+0xa0],ecx
    32fd:	85 c0                	test   eax,eax
    32ff:	75 10                	jne    3311 <__cxa_finalize@plt+0x2041>
    3301:	48 8b 45 f8          	mov    rax,QWORD PTR [rbp-0x8]
    3305:	48 83 c0 60          	add    rax,0x60
    3309:	48 89 c7             	mov    rdi,rax
    330c:	e8 2f dd ff ff       	call   1040 <sem_wait@plt>
    3311:	48 8b 45 f8          	mov    rax,QWORD PTR [rbp-0x8]
    3315:	48 83 e8 80          	sub    rax,0xffffffffffffff80
    3319:	48 89 c7             	mov    rdi,rax
    331c:	e8 ef dd ff ff       	call   1110 <sem_post@plt>
    3321:	90                   	nop
    3322:	c9                   	leave  
    3323:	c3                   	ret    
    3324:	55                   	push   rbp
    3325:	48 89 e5             	mov    rbp,rsp
    3328:	48 83 ec 10          	sub    rsp,0x10
    332c:	48 89 7d f8          	mov    QWORD PTR [rbp-0x8],rdi
    3330:	48 8b 45 f8          	mov    rax,QWORD PTR [rbp-0x8]
    3334:	48 83 e8 80          	sub    rax,0xffffffffffffff80
    3338:	48 89 c7             	mov    rdi,rax
    333b:	e8 00 dd ff ff       	call   1040 <sem_wait@plt>
    3340:	48 8b 45 f8          	mov    rax,QWORD PTR [rbp-0x8]
    3344:	8b 80 a0 00 00 00    	mov    eax,DWORD PTR [rax+0xa0]
    334a:	8d 50 ff             	lea    edx,[rax-0x1]
    334d:	48 8b 45 f8          	mov    rax,QWORD PTR [rbp-0x8]
    3351:	89 90 a0 00 00 00    	mov    DWORD PTR [rax+0xa0],edx
    3357:	48 8b 45 f8          	mov    rax,QWORD PTR [rbp-0x8]
    335b:	8b 80 a0 00 00 00    	mov    eax,DWORD PTR [rax+0xa0]
    3361:	85 c0                	test   eax,eax
    3363:	75 10                	jne    3375 <__cxa_finalize@plt+0x20a5>
    3365:	48 8b 45 f8          	mov    rax,QWORD PTR [rbp-0x8]
    3369:	48 83 c0 60          	add    rax,0x60
    336d:	48 89 c7             	mov    rdi,rax
    3370:	e8 9b dd ff ff       	call   1110 <sem_post@plt>
    3375:	48 8b 45 f8          	mov    rax,QWORD PTR [rbp-0x8]
    3379:	48 83 e8 80          	sub    rax,0xffffffffffffff80
    337d:	48 89 c7             	mov    rdi,rax
    3380:	e8 8b dd ff ff       	call   1110 <sem_post@plt>
    3385:	90                   	nop
    3386:	c9                   	leave  
    3387:	c3                   	ret    
    3388:	55                   	push   rbp
    3389:	48 89 e5             	mov    rbp,rsp
    338c:	48 83 ec 10          	sub    rsp,0x10
    3390:	48 89 7d f8          	mov    QWORD PTR [rbp-0x8],rdi
    3394:	48 8b 45 f8          	mov    rax,QWORD PTR [rbp-0x8]
    3398:	48 83 c0 40          	add    rax,0x40
    339c:	48 89 c7             	mov    rdi,rax
    339f:	e8 9c dc ff ff       	call   1040 <sem_wait@plt>
    33a4:	48 8b 45 f8          	mov    rax,QWORD PTR [rbp-0x8]
    33a8:	48 83 c0 60          	add    rax,0x60
    33ac:	48 89 c7             	mov    rdi,rax
    33af:	e8 8c dc ff ff       	call   1040 <sem_wait@plt>
    33b4:	48 8b 45 f8          	mov    rax,QWORD PTR [rbp-0x8]
    33b8:	48 83 c0 40          	add    rax,0x40
    33bc:	48 89 c7             	mov    rdi,rax
    33bf:	e8 4c dd ff ff       	call   1110 <sem_post@plt>
    33c4:	90                   	nop
    33c5:	c9                   	leave  
    33c6:	c3                   	ret    
    33c7:	55                   	push   rbp
    33c8:	48 89 e5             	mov    rbp,rsp
    33cb:	48 83 ec 10          	sub    rsp,0x10
    33cf:	48 89 7d f8          	mov    QWORD PTR [rbp-0x8],rdi
    33d3:	48 8b 45 f8          	mov    rax,QWORD PTR [rbp-0x8]
    33d7:	48 83 c0 60          	add    rax,0x60
    33db:	48 89 c7             	mov    rdi,rax
    33de:	e8 2d dd ff ff       	call   1110 <sem_post@plt>
    33e3:	90                   	nop
    33e4:	c9                   	leave  
    33e5:	c3                   	ret    
    33e6:	55                   	push   rbp
    33e7:	48 89 e5             	mov    rbp,rsp
    33ea:	48 83 ec 10          	sub    rsp,0x10
    33ee:	48 89 7d f8          	mov    QWORD PTR [rbp-0x8],rdi
    33f2:	48 8b 45 f8          	mov    rax,QWORD PTR [rbp-0x8]
    33f6:	48 89 c7             	mov    rdi,rax
    33f9:	e8 92 de ff ff       	call   1290 <sem_destroy@plt>
    33fe:	83 f8 ff             	cmp    eax,0xffffffff
    3401:	75 19                	jne    341c <__cxa_finalize@plt+0x214c>
    3403:	48 8d 05 e7 0c 00 00 	lea    rax,[rip+0xce7]        # 40f1 <__cxa_finalize@plt+0x2e21>
    340a:	48 89 c7             	mov    rdi,rax
    340d:	e8 ce dd ff ff       	call   11e0 <perror@plt>
    3412:	bf 01 00 00 00       	mov    edi,0x1
    3417:	e8 04 de ff ff       	call   1220 <exit@plt>
    341c:	48 8b 45 f8          	mov    rax,QWORD PTR [rbp-0x8]
    3420:	48 83 c0 20          	add    rax,0x20
    3424:	48 89 c7             	mov    rdi,rax
    3427:	e8 64 de ff ff       	call   1290 <sem_destroy@plt>
    342c:	83 f8 ff             	cmp    eax,0xffffffff
    342f:	75 19                	jne    344a <__cxa_finalize@plt+0x217a>
    3431:	48 8d 05 b9 0c 00 00 	lea    rax,[rip+0xcb9]        # 40f1 <__cxa_finalize@plt+0x2e21>
    3438:	48 89 c7             	mov    rdi,rax
    343b:	e8 a0 dd ff ff       	call   11e0 <perror@plt>
    3440:	bf 01 00 00 00       	mov    edi,0x1
    3445:	e8 d6 dd ff ff       	call   1220 <exit@plt>
    344a:	48 8b 45 f8          	mov    rax,QWORD PTR [rbp-0x8]
    344e:	48 83 c0 40          	add    rax,0x40
    3452:	48 89 c7             	mov    rdi,rax
    3455:	e8 36 de ff ff       	call   1290 <sem_destroy@plt>
    345a:	83 f8 ff             	cmp    eax,0xffffffff
    345d:	75 19                	jne    3478 <__cxa_finalize@plt+0x21a8>
    345f:	48 8d 05 8b 0c 00 00 	lea    rax,[rip+0xc8b]        # 40f1 <__cxa_finalize@plt+0x2e21>
    3466:	48 89 c7             	mov    rdi,rax
    3469:	e8 72 dd ff ff       	call   11e0 <perror@plt>
    346e:	bf 01 00 00 00       	mov    edi,0x1
    3473:	e8 a8 dd ff ff       	call   1220 <exit@plt>
    3478:	48 8b 45 f8          	mov    rax,QWORD PTR [rbp-0x8]
    347c:	48 83 c0 60          	add    rax,0x60
    3480:	48 89 c7             	mov    rdi,rax
    3483:	e8 08 de ff ff       	call   1290 <sem_destroy@plt>
    3488:	83 f8 ff             	cmp    eax,0xffffffff
    348b:	75 19                	jne    34a6 <__cxa_finalize@plt+0x21d6>
    348d:	48 8d 05 5d 0c 00 00 	lea    rax,[rip+0xc5d]        # 40f1 <__cxa_finalize@plt+0x2e21>
    3494:	48 89 c7             	mov    rdi,rax
    3497:	e8 44 dd ff ff       	call   11e0 <perror@plt>
    349c:	bf 01 00 00 00       	mov    edi,0x1
    34a1:	e8 7a dd ff ff       	call   1220 <exit@plt>
    34a6:	48 8b 45 f8          	mov    rax,QWORD PTR [rbp-0x8]
    34aa:	48 83 e8 80          	sub    rax,0xffffffffffffff80
    34ae:	48 89 c7             	mov    rdi,rax
    34b1:	e8 da dd ff ff       	call   1290 <sem_destroy@plt>
    34b6:	83 f8 ff             	cmp    eax,0xffffffff
    34b9:	75 19                	jne    34d4 <__cxa_finalize@plt+0x2204>
    34bb:	48 8d 05 2f 0c 00 00 	lea    rax,[rip+0xc2f]        # 40f1 <__cxa_finalize@plt+0x2e21>
    34c2:	48 89 c7             	mov    rdi,rax
    34c5:	e8 16 dd ff ff       	call   11e0 <perror@plt>
    34ca:	bf 01 00 00 00       	mov    edi,0x1
    34cf:	e8 4c dd ff ff       	call   1220 <exit@plt>
    34d4:	90                   	nop
    34d5:	c9                   	leave  
    34d6:	c3                   	ret    
    34d7:	55                   	push   rbp
    34d8:	48 89 e5             	mov    rbp,rsp
    34db:	48 83 ec 40          	sub    rsp,0x40
    34df:	89 7d dc             	mov    DWORD PTR [rbp-0x24],edi
    34e2:	48 89 75 d0          	mov    QWORD PTR [rbp-0x30],rsi
    34e6:	48 89 55 c8          	mov    QWORD PTR [rbp-0x38],rdx
    34ea:	48 8b 45 c8          	mov    rax,QWORD PTR [rbp-0x38]
    34ee:	66 c7 00 00 00       	mov    WORD PTR [rax],0x0
    34f3:	48 8b 45 c8          	mov    rax,QWORD PTR [rbp-0x38]
    34f7:	66 c7 40 02 00 00    	mov    WORD PTR [rax+0x2],0x0
    34fd:	48 8b 45 c8          	mov    rax,QWORD PTR [rbp-0x38]
    3501:	c7 40 04 c8 00 00 00 	mov    DWORD PTR [rax+0x4],0xc8
    3508:	48 8b 45 c8          	mov    rax,QWORD PTR [rbp-0x38]
    350c:	c7 40 0c 0a 00 00 00 	mov    DWORD PTR [rax+0xc],0xa
    3513:	bf 00 00 00 00       	mov    edi,0x0
    3518:	e8 73 dc ff ff       	call   1190 <time@plt>
    351d:	89 c2                	mov    edx,eax
    351f:	48 8b 45 c8          	mov    rax,QWORD PTR [rbp-0x38]
    3523:	89 50 08             	mov    DWORD PTR [rax+0x8],edx
    3526:	48 8b 45 c8          	mov    rax,QWORD PTR [rbp-0x38]
    352a:	48 c7 40 20 00 00 00 	mov    QWORD PTR [rax+0x20],0x0
    3531:	00 
    3532:	c6 45 ff 00          	mov    BYTE PTR [rbp-0x1],0x0
    3536:	c7 45 f8 00 00 00 00 	mov    DWORD PTR [rbp-0x8],0x0
    353d:	48 c7 45 f0 00 00 00 	mov    QWORD PTR [rbp-0x10],0x0
    3544:	00 
    3545:	e9 8c 01 00 00       	jmp    36d6 <__cxa_finalize@plt+0x2406>
    354a:	8b 45 ec             	mov    eax,DWORD PTR [rbp-0x14]
    354d:	83 e8 64             	sub    eax,0x64
    3550:	83 f8 13             	cmp    eax,0x13
    3553:	0f 87 4e 01 00 00    	ja     36a7 <__cxa_finalize@plt+0x23d7>
    3559:	89 c0                	mov    eax,eax
    355b:	48 8d 14 85 00 00 00 	lea    rdx,[rax*4+0x0]
    3562:	00 
    3563:	48 8d 05 46 0c 00 00 	lea    rax,[rip+0xc46]        # 41b0 <__cxa_finalize@plt+0x2ee0>
    356a:	8b 04 02             	mov    eax,DWORD PTR [rdx+rax*1]
    356d:	48 98                	cdqe   
    356f:	48 8d 15 3a 0c 00 00 	lea    rdx,[rip+0xc3a]        # 41b0 <__cxa_finalize@plt+0x2ee0>
    3576:	48 01 d0             	add    rax,rdx
    3579:	ff e0                	jmp    rax
    357b:	48 8b 05 fe 2b 00 00 	mov    rax,QWORD PTR [rip+0x2bfe]        # 6180 <optarg@GLIBC_2.2.5>
    3582:	48 89 c7             	mov    rdi,rax
    3585:	e8 86 dc ff ff       	call   1210 <atoi@plt>
    358a:	89 c2                	mov    edx,eax
    358c:	48 8b 45 c8          	mov    rax,QWORD PTR [rbp-0x38]
    3590:	66 89 10             	mov    WORD PTR [rax],dx
    3593:	e9 3e 01 00 00       	jmp    36d6 <__cxa_finalize@plt+0x2406>
    3598:	48 8b 05 e1 2b 00 00 	mov    rax,QWORD PTR [rip+0x2be1]        # 6180 <optarg@GLIBC_2.2.5>
    359f:	48 89 c7             	mov    rdi,rax
    35a2:	e8 69 dc ff ff       	call   1210 <atoi@plt>
    35a7:	89 c2                	mov    edx,eax
    35a9:	48 8b 45 c8          	mov    rax,QWORD PTR [rbp-0x38]
    35ad:	66 89 50 02          	mov    WORD PTR [rax+0x2],dx
    35b1:	e9 20 01 00 00       	jmp    36d6 <__cxa_finalize@plt+0x2406>
    35b6:	c6 45 ff 01          	mov    BYTE PTR [rbp-0x1],0x1
    35ba:	48 8b 05 bf 2b 00 00 	mov    rax,QWORD PTR [rip+0x2bbf]        # 6180 <optarg@GLIBC_2.2.5>
    35c1:	48 89 c7             	mov    rdi,rax
    35c4:	e8 47 dc ff ff       	call   1210 <atoi@plt>
    35c9:	89 c2                	mov    edx,eax
    35cb:	48 8b 45 c8          	mov    rax,QWORD PTR [rbp-0x38]
    35cf:	89 50 04             	mov    DWORD PTR [rax+0x4],edx
    35d2:	e9 ff 00 00 00       	jmp    36d6 <__cxa_finalize@plt+0x2406>
    35d7:	48 8b 05 a2 2b 00 00 	mov    rax,QWORD PTR [rip+0x2ba2]        # 6180 <optarg@GLIBC_2.2.5>
    35de:	48 89 c7             	mov    rdi,rax
    35e1:	e8 2a dc ff ff       	call   1210 <atoi@plt>
    35e6:	89 c2                	mov    edx,eax
    35e8:	48 8b 45 c8          	mov    rax,QWORD PTR [rbp-0x38]
    35ec:	89 50 0c             	mov    DWORD PTR [rax+0xc],edx
    35ef:	e9 e2 00 00 00       	jmp    36d6 <__cxa_finalize@plt+0x2406>
    35f4:	48 8b 05 85 2b 00 00 	mov    rax,QWORD PTR [rip+0x2b85]        # 6180 <optarg@GLIBC_2.2.5>
    35fb:	48 89 c7             	mov    rdi,rax
    35fe:	e8 0d dc ff ff       	call   1210 <atoi@plt>
    3603:	89 c2                	mov    edx,eax
    3605:	48 8b 45 c8          	mov    rax,QWORD PTR [rbp-0x38]
    3609:	89 50 08             	mov    DWORD PTR [rax+0x8],edx
    360c:	e9 c5 00 00 00       	jmp    36d6 <__cxa_finalize@plt+0x2406>
    3611:	8b 05 49 2b 00 00    	mov    eax,DWORD PTR [rip+0x2b49]        # 6160 <optind@GLIBC_2.2.5>
    3617:	48 98                	cdqe   
    3619:	48 c1 e0 03          	shl    rax,0x3
    361d:	48 8d 50 f8          	lea    rdx,[rax-0x8]
    3621:	48 8b 45 d0          	mov    rax,QWORD PTR [rbp-0x30]
    3625:	48 01 d0             	add    rax,rdx
    3628:	48 8b 10             	mov    rdx,QWORD PTR [rax]
    362b:	48 8b 45 c8          	mov    rax,QWORD PTR [rbp-0x38]
    362f:	48 89 50 20          	mov    QWORD PTR [rax+0x20],rdx
    3633:	e9 9e 00 00 00       	jmp    36d6 <__cxa_finalize@plt+0x2406>
    3638:	8b 05 22 2b 00 00    	mov    eax,DWORD PTR [rip+0x2b22]        # 6160 <optind@GLIBC_2.2.5>
    363e:	48 98                	cdqe   
    3640:	48 c1 e0 03          	shl    rax,0x3
    3644:	48 8d 50 f8          	lea    rdx,[rax-0x8]
    3648:	48 8b 45 d0          	mov    rax,QWORD PTR [rbp-0x30]
    364c:	48 01 d0             	add    rax,rdx
    364f:	48 89 45 f0          	mov    QWORD PTR [rbp-0x10],rax
    3653:	eb 04                	jmp    3659 <__cxa_finalize@plt+0x2389>
    3655:	83 45 f8 01          	add    DWORD PTR [rbp-0x8],0x1
    3659:	8b 45 f8             	mov    eax,DWORD PTR [rbp-0x8]
    365c:	48 8d 14 c5 00 00 00 	lea    rdx,[rax*8+0x0]
    3663:	00 
    3664:	48 8b 45 f0          	mov    rax,QWORD PTR [rbp-0x10]
    3668:	48 01 d0             	add    rax,rdx
    366b:	48 8b 00             	mov    rax,QWORD PTR [rax]
    366e:	48 85 c0             	test   rax,rax
    3671:	74 1c                	je     368f <__cxa_finalize@plt+0x23bf>
    3673:	8b 45 f8             	mov    eax,DWORD PTR [rbp-0x8]
    3676:	48 8d 14 c5 00 00 00 	lea    rdx,[rax*8+0x0]
    367d:	00 
    367e:	48 8b 45 f0          	mov    rax,QWORD PTR [rbp-0x10]
    3682:	48 01 d0             	add    rax,rdx
    3685:	48 8b 00             	mov    rax,QWORD PTR [rax]
    3688:	0f b6 00             	movzx  eax,BYTE PTR [rax]
    368b:	3c 2d                	cmp    al,0x2d
    368d:	75 c6                	jne    3655 <__cxa_finalize@plt+0x2385>
    368f:	8b 05 cb 2a 00 00    	mov    eax,DWORD PTR [rip+0x2acb]        # 6160 <optind@GLIBC_2.2.5>
    3695:	89 c2                	mov    edx,eax
    3697:	8b 45 f8             	mov    eax,DWORD PTR [rbp-0x8]
    369a:	01 d0                	add    eax,edx
    369c:	83 e8 01             	sub    eax,0x1
    369f:	89 05 bb 2a 00 00    	mov    DWORD PTR [rip+0x2abb],eax        # 6160 <optind@GLIBC_2.2.5>
    36a5:	eb 2f                	jmp    36d6 <__cxa_finalize@plt+0x2406>
    36a7:	48 8b 45 d0          	mov    rax,QWORD PTR [rbp-0x30]
    36ab:	48 8b 10             	mov    rdx,QWORD PTR [rax]
    36ae:	48 8b 05 eb 2a 00 00 	mov    rax,QWORD PTR [rip+0x2aeb]        # 61a0 <stderr@GLIBC_2.2.5>
    36b5:	48 8d 0d 44 0a 00 00 	lea    rcx,[rip+0xa44]        # 4100 <__cxa_finalize@plt+0x2e30>
    36bc:	48 89 ce             	mov    rsi,rcx
    36bf:	48 89 c7             	mov    rdi,rax
    36c2:	b8 00 00 00 00       	mov    eax,0x0
    36c7:	e8 94 da ff ff       	call   1160 <fprintf@plt>
    36cc:	bf 01 00 00 00       	mov    edi,0x1
    36d1:	e8 4a db ff ff       	call   1220 <exit@plt>
    36d6:	48 8b 4d d0          	mov    rcx,QWORD PTR [rbp-0x30]
    36da:	8b 45 dc             	mov    eax,DWORD PTR [rbp-0x24]
    36dd:	48 8d 15 81 0a 00 00 	lea    rdx,[rip+0xa81]        # 4165 <__cxa_finalize@plt+0x2e95>
    36e4:	48 89 ce             	mov    rsi,rcx
    36e7:	89 c7                	mov    edi,eax
    36e9:	e8 02 db ff ff       	call   11f0 <getopt@plt>
    36ee:	89 45 ec             	mov    DWORD PTR [rbp-0x14],eax
    36f1:	83 7d ec ff          	cmp    DWORD PTR [rbp-0x14],0xffffffff
    36f5:	0f 85 4f fe ff ff    	jne    354a <__cxa_finalize@plt+0x227a>
    36fb:	80 7d ff 00          	cmp    BYTE PTR [rbp-0x1],0x0
    36ff:	74 30                	je     3731 <__cxa_finalize@plt+0x2461>
    3701:	48 8b 45 c8          	mov    rax,QWORD PTR [rbp-0x38]
    3705:	48 8b 40 20          	mov    rax,QWORD PTR [rax+0x20]
    3709:	48 85 c0             	test   rax,rax
    370c:	75 23                	jne    3731 <__cxa_finalize@plt+0x2461>
    370e:	48 8b 05 8b 2a 00 00 	mov    rax,QWORD PTR [rip+0x2a8b]        # 61a0 <stderr@GLIBC_2.2.5>
    3715:	48 89 c1             	mov    rcx,rax
    3718:	ba 36 00 00 00       	mov    edx,0x36
    371d:	be 01 00 00 00       	mov    esi,0x1
    3722:	48 8d 05 4f 0a 00 00 	lea    rax,[rip+0xa4f]        # 4178 <__cxa_finalize@plt+0x2ea8>
    3729:	48 89 c7             	mov    rdi,rax
    372c:	e8 ff da ff ff       	call   1230 <fwrite@plt>
    3731:	48 8b 45 c8          	mov    rax,QWORD PTR [rbp-0x38]
    3735:	0f b7 00             	movzx  eax,WORD PTR [rax]
    3738:	66 85 c0             	test   ax,ax
    373b:	74 0d                	je     374a <__cxa_finalize@plt+0x247a>
    373d:	48 8b 45 c8          	mov    rax,QWORD PTR [rbp-0x38]
    3741:	0f b7 40 02          	movzx  eax,WORD PTR [rax+0x2]
    3745:	66 85 c0             	test   ax,ax
    3748:	75 2c                	jne    3776 <__cxa_finalize@plt+0x24a6>
    374a:	48 8b 45 c8          	mov    rax,QWORD PTR [rbp-0x38]
    374e:	0f b7 00             	movzx  eax,WORD PTR [rax]
    3751:	66 85 c0             	test   ax,ax
    3754:	75 09                	jne    375f <__cxa_finalize@plt+0x248f>
    3756:	48 8b 45 c8          	mov    rax,QWORD PTR [rbp-0x38]
    375a:	66 c7 00 0a 00       	mov    WORD PTR [rax],0xa
    375f:	48 8b 45 c8          	mov    rax,QWORD PTR [rbp-0x38]
    3763:	0f b7 40 02          	movzx  eax,WORD PTR [rax+0x2]
    3767:	66 85 c0             	test   ax,ax
    376a:	75 0a                	jne    3776 <__cxa_finalize@plt+0x24a6>
    376c:	48 8b 45 c8          	mov    rax,QWORD PTR [rbp-0x38]
    3770:	66 c7 40 02 0a 00    	mov    WORD PTR [rax+0x2],0xa
    3776:	48 8b 45 c8          	mov    rax,QWORD PTR [rbp-0x38]
    377a:	8b 55 f8             	mov    edx,DWORD PTR [rbp-0x8]
    377d:	89 50 10             	mov    DWORD PTR [rax+0x10],edx
    3780:	48 8b 45 c8          	mov    rax,QWORD PTR [rbp-0x38]
    3784:	48 8b 55 f0          	mov    rdx,QWORD PTR [rbp-0x10]
    3788:	48 89 50 18          	mov    QWORD PTR [rax+0x18],rdx
    378c:	90                   	nop
    378d:	c9                   	leave  
    378e:	c3                   	ret    
    378f:	55                   	push   rbp
    3790:	48 89 e5             	mov    rbp,rsp
    3793:	48 83 ec 10          	sub    rsp,0x10
    3797:	48 89 7d f8          	mov    QWORD PTR [rbp-0x8],rdi
    379b:	48 8b 45 f8          	mov    rax,QWORD PTR [rbp-0x8]
    379f:	8b 40 10             	mov    eax,DWORD PTR [rax+0x10]
    37a2:	85 c0                	test   eax,eax
    37a4:	75 2d                	jne    37d3 <__cxa_finalize@plt+0x2503>
    37a6:	48 8b 05 f3 29 00 00 	mov    rax,QWORD PTR [rip+0x29f3]        # 61a0 <stderr@GLIBC_2.2.5>
    37ad:	48 89 c1             	mov    rcx,rax
    37b0:	ba 37 00 00 00       	mov    edx,0x37
    37b5:	be 01 00 00 00       	mov    esi,0x1
    37ba:	48 8d 05 3f 0a 00 00 	lea    rax,[rip+0xa3f]        # 4200 <__cxa_finalize@plt+0x2f30>
    37c1:	48 89 c7             	mov    rdi,rax
    37c4:	e8 67 da ff ff       	call   1230 <fwrite@plt>
    37c9:	bf 01 00 00 00       	mov    edi,0x1
    37ce:	e8 4d da ff ff       	call   1220 <exit@plt>
    37d3:	48 8b 45 f8          	mov    rax,QWORD PTR [rbp-0x8]
    37d7:	8b 40 10             	mov    eax,DWORD PTR [rax+0x10]
    37da:	83 f8 09             	cmp    eax,0x9
    37dd:	76 2d                	jbe    380c <__cxa_finalize@plt+0x253c>
    37df:	48 8b 05 ba 29 00 00 	mov    rax,QWORD PTR [rip+0x29ba]        # 61a0 <stderr@GLIBC_2.2.5>
    37e6:	ba 09 00 00 00       	mov    edx,0x9
    37eb:	48 8d 0d 46 0a 00 00 	lea    rcx,[rip+0xa46]        # 4238 <__cxa_finalize@plt+0x2f68>
    37f2:	48 89 ce             	mov    rsi,rcx
    37f5:	48 89 c7             	mov    rdi,rax
    37f8:	b8 00 00 00 00       	mov    eax,0x0
    37fd:	e8 5e d9 ff ff       	call   1160 <fprintf@plt>
    3802:	bf 01 00 00 00       	mov    edi,0x1
    3807:	e8 14 da ff ff       	call   1220 <exit@plt>
    380c:	48 8b 45 f8          	mov    rax,QWORD PTR [rbp-0x8]
    3810:	0f b7 00             	movzx  eax,WORD PTR [rax]
    3813:	66 83 f8 09          	cmp    ax,0x9
    3817:	76 0e                	jbe    3827 <__cxa_finalize@plt+0x2557>
    3819:	48 8b 45 f8          	mov    rax,QWORD PTR [rbp-0x8]
    381d:	0f b7 40 02          	movzx  eax,WORD PTR [rax+0x2]
    3821:	66 83 f8 09          	cmp    ax,0x9
    3825:	77 4a                	ja     3871 <__cxa_finalize@plt+0x25a1>
    3827:	48 8b 45 f8          	mov    rax,QWORD PTR [rbp-0x8]
    382b:	0f b7 40 02          	movzx  eax,WORD PTR [rax+0x2]
    382f:	0f b7 c8             	movzx  ecx,ax
    3832:	48 8b 45 f8          	mov    rax,QWORD PTR [rbp-0x8]
    3836:	0f b7 00             	movzx  eax,WORD PTR [rax]
    3839:	0f b7 d0             	movzx  edx,ax
    383c:	48 8b 05 5d 29 00 00 	mov    rax,QWORD PTR [rip+0x295d]        # 61a0 <stderr@GLIBC_2.2.5>
    3843:	41 89 c9             	mov    r9d,ecx
    3846:	41 89 d0             	mov    r8d,edx
    3849:	b9 0a 00 00 00       	mov    ecx,0xa
    384e:	ba 0a 00 00 00       	mov    edx,0xa
    3853:	48 8d 35 16 0a 00 00 	lea    rsi,[rip+0xa16]        # 4270 <__cxa_finalize@plt+0x2fa0>
    385a:	48 89 c7             	mov    rdi,rax
    385d:	b8 00 00 00 00       	mov    eax,0x0
    3862:	e8 f9 d8 ff ff       	call   1160 <fprintf@plt>
    3867:	bf 01 00 00 00       	mov    edi,0x1
    386c:	e8 af d9 ff ff       	call   1220 <exit@plt>
    3871:	90                   	nop
    3872:	c9                   	leave  
    3873:	c3                   	ret    
    3874:	55                   	push   rbp
    3875:	48 89 e5             	mov    rbp,rsp
    3878:	48 83 ec 20          	sub    rsp,0x20
    387c:	48 89 7d e8          	mov    QWORD PTR [rbp-0x18],rdi
    3880:	48 8b 45 e8          	mov    rax,QWORD PTR [rbp-0x18]
    3884:	0f b7 00             	movzx  eax,WORD PTR [rax]
    3887:	0f b7 c0             	movzx  eax,ax
    388a:	89 c6                	mov    esi,eax
    388c:	48 8d 05 12 0a 00 00 	lea    rax,[rip+0xa12]        # 42a5 <__cxa_finalize@plt+0x2fd5>
    3893:	48 89 c7             	mov    rdi,rax
    3896:	b8 00 00 00 00       	mov    eax,0x0
    389b:	e8 00 d8 ff ff       	call   10a0 <printf@plt>
    38a0:	48 8b 45 e8          	mov    rax,QWORD PTR [rbp-0x18]
    38a4:	0f b7 40 02          	movzx  eax,WORD PTR [rax+0x2]
    38a8:	0f b7 c0             	movzx  eax,ax
    38ab:	89 c6                	mov    esi,eax
    38ad:	48 8d 05 fc 09 00 00 	lea    rax,[rip+0x9fc]        # 42b0 <__cxa_finalize@plt+0x2fe0>
    38b4:	48 89 c7             	mov    rdi,rax
    38b7:	b8 00 00 00 00       	mov    eax,0x0
    38bc:	e8 df d7 ff ff       	call   10a0 <printf@plt>
    38c1:	48 8b 45 e8          	mov    rax,QWORD PTR [rbp-0x18]
    38c5:	8b 40 04             	mov    eax,DWORD PTR [rax+0x4]
    38c8:	89 c6                	mov    esi,eax
    38ca:	48 8d 05 eb 09 00 00 	lea    rax,[rip+0x9eb]        # 42bc <__cxa_finalize@plt+0x2fec>
    38d1:	48 89 c7             	mov    rdi,rax
    38d4:	b8 00 00 00 00       	mov    eax,0x0
    38d9:	e8 c2 d7 ff ff       	call   10a0 <printf@plt>
    38de:	48 8b 45 e8          	mov    rax,QWORD PTR [rbp-0x18]
    38e2:	8b 40 0c             	mov    eax,DWORD PTR [rax+0xc]
    38e5:	89 c6                	mov    esi,eax
    38e7:	48 8d 05 d9 09 00 00 	lea    rax,[rip+0x9d9]        # 42c7 <__cxa_finalize@plt+0x2ff7>
    38ee:	48 89 c7             	mov    rdi,rax
    38f1:	b8 00 00 00 00       	mov    eax,0x0
    38f6:	e8 a5 d7 ff ff       	call   10a0 <printf@plt>
    38fb:	48 8b 45 e8          	mov    rax,QWORD PTR [rbp-0x18]
    38ff:	8b 40 08             	mov    eax,DWORD PTR [rax+0x8]
    3902:	89 c6                	mov    esi,eax
    3904:	48 8d 05 c9 09 00 00 	lea    rax,[rip+0x9c9]        # 42d4 <__cxa_finalize@plt+0x3004>
    390b:	48 89 c7             	mov    rdi,rax
    390e:	b8 00 00 00 00       	mov    eax,0x0
    3913:	e8 88 d7 ff ff       	call   10a0 <printf@plt>
    3918:	48 8b 45 e8          	mov    rax,QWORD PTR [rbp-0x18]
    391c:	48 8b 40 20          	mov    rax,QWORD PTR [rax+0x20]
    3920:	48 85 c0             	test   rax,rax
    3923:	74 0a                	je     392f <__cxa_finalize@plt+0x265f>
    3925:	48 8b 45 e8          	mov    rax,QWORD PTR [rbp-0x18]
    3929:	48 8b 40 20          	mov    rax,QWORD PTR [rax+0x20]
    392d:	eb 07                	jmp    3936 <__cxa_finalize@plt+0x2666>
    392f:	48 8d 05 a8 09 00 00 	lea    rax,[rip+0x9a8]        # 42de <__cxa_finalize@plt+0x300e>
    3936:	48 89 c6             	mov    rsi,rax
    3939:	48 8d 05 a0 09 00 00 	lea    rax,[rip+0x9a0]        # 42e0 <__cxa_finalize@plt+0x3010>
    3940:	48 89 c7             	mov    rdi,rax
    3943:	b8 00 00 00 00       	mov    eax,0x0
    3948:	e8 53 d7 ff ff       	call   10a0 <printf@plt>
    394d:	48 8b 45 e8          	mov    rax,QWORD PTR [rbp-0x18]
    3951:	8b 40 10             	mov    eax,DWORD PTR [rax+0x10]
    3954:	89 c6                	mov    esi,eax
    3956:	48 8d 05 8d 09 00 00 	lea    rax,[rip+0x98d]        # 42ea <__cxa_finalize@plt+0x301a>
    395d:	48 89 c7             	mov    rdi,rax
    3960:	b8 00 00 00 00       	mov    eax,0x0
    3965:	e8 36 d7 ff ff       	call   10a0 <printf@plt>
    396a:	c7 45 fc 00 00 00 00 	mov    DWORD PTR [rbp-0x4],0x0
    3971:	eb 30                	jmp    39a3 <__cxa_finalize@plt+0x26d3>
    3973:	48 8b 45 e8          	mov    rax,QWORD PTR [rbp-0x18]
    3977:	48 8b 40 18          	mov    rax,QWORD PTR [rax+0x18]
    397b:	8b 55 fc             	mov    edx,DWORD PTR [rbp-0x4]
    397e:	48 c1 e2 03          	shl    rdx,0x3
    3982:	48 01 d0             	add    rax,rdx
    3985:	48 8b 00             	mov    rax,QWORD PTR [rax]
    3988:	48 89 c6             	mov    rsi,rax
    398b:	48 8d 05 69 09 00 00 	lea    rax,[rip+0x969]        # 42fb <__cxa_finalize@plt+0x302b>
    3992:	48 89 c7             	mov    rdi,rax
    3995:	b8 00 00 00 00       	mov    eax,0x0
    399a:	e8 01 d7 ff ff       	call   10a0 <printf@plt>
    399f:	83 45 fc 01          	add    DWORD PTR [rbp-0x4],0x1
    39a3:	48 8b 45 e8          	mov    rax,QWORD PTR [rbp-0x18]
    39a7:	8b 40 10             	mov    eax,DWORD PTR [rax+0x10]
    39aa:	39 45 fc             	cmp    DWORD PTR [rbp-0x4],eax
    39ad:	72 c4                	jb     3973 <__cxa_finalize@plt+0x26a3>
    39af:	bf 02 00 00 00       	mov    edi,0x2
    39b4:	e8 b7 d8 ff ff       	call   1270 <sleep@plt>
    39b9:	90                   	nop
    39ba:	c9                   	leave  
    39bb:	c3                   	ret    
    39bc:	55                   	push   rbp
    39bd:	48 89 e5             	mov    rbp,rsp
    39c0:	48 83 ec 10          	sub    rsp,0x10
    39c4:	48 89 7d f8          	mov    QWORD PTR [rbp-0x8],rdi
    39c8:	48 8b 45 f8          	mov    rax,QWORD PTR [rbp-0x8]
    39cc:	8b 50 0c             	mov    edx,DWORD PTR [rax+0xc]
    39cf:	48 8b 45 f8          	mov    rax,QWORD PTR [rbp-0x8]
    39d3:	8b 48 08             	mov    ecx,DWORD PTR [rax+0x8]
    39d6:	48 8b 45 f8          	mov    rax,QWORD PTR [rbp-0x8]
    39da:	48 8b 00             	mov    rax,QWORD PTR [rax]
    39dd:	89 ce                	mov    esi,ecx
    39df:	48 89 c7             	mov    rdi,rax
    39e2:	e8 59 d8 ff ff       	call   1240 <shm_open@plt>
    39e7:	48 8b 55 f8          	mov    rdx,QWORD PTR [rbp-0x8]
    39eb:	89 42 10             	mov    DWORD PTR [rdx+0x10],eax
    39ee:	48 8b 45 f8          	mov    rax,QWORD PTR [rbp-0x8]
    39f2:	8b 40 10             	mov    eax,DWORD PTR [rax+0x10]
    39f5:	83 f8 ff             	cmp    eax,0xffffffff
    39f8:	75 19                	jne    3a13 <__cxa_finalize@plt+0x2743>
    39fa:	48 8d 05 00 09 00 00 	lea    rax,[rip+0x900]        # 4301 <__cxa_finalize@plt+0x3031>
    3a01:	48 89 c7             	mov    rdi,rax
    3a04:	e8 d7 d7 ff ff       	call   11e0 <perror@plt>
    3a09:	bf 01 00 00 00       	mov    edi,0x1
    3a0e:	e8 0d d8 ff ff       	call   1220 <exit@plt>
    3a13:	48 8b 45 f8          	mov    rax,QWORD PTR [rbp-0x8]
    3a17:	8b 40 08             	mov    eax,DWORD PTR [rax+0x8]
    3a1a:	83 e0 40             	and    eax,0x40
    3a1d:	85 c0                	test   eax,eax
    3a1f:	74 3a                	je     3a5b <__cxa_finalize@plt+0x278b>
    3a21:	48 8b 45 f8          	mov    rax,QWORD PTR [rbp-0x8]
    3a25:	48 8b 40 18          	mov    rax,QWORD PTR [rax+0x18]
    3a29:	48 89 c2             	mov    rdx,rax
    3a2c:	48 8b 45 f8          	mov    rax,QWORD PTR [rbp-0x8]
    3a30:	8b 40 10             	mov    eax,DWORD PTR [rax+0x10]
    3a33:	48 89 d6             	mov    rsi,rdx
    3a36:	89 c7                	mov    edi,eax
    3a38:	e8 93 d6 ff ff       	call   10d0 <ftruncate@plt>
    3a3d:	83 f8 ff             	cmp    eax,0xffffffff
    3a40:	75 19                	jne    3a5b <__cxa_finalize@plt+0x278b>
    3a42:	48 8d 05 c1 08 00 00 	lea    rax,[rip+0x8c1]        # 430a <__cxa_finalize@plt+0x303a>
    3a49:	48 89 c7             	mov    rdi,rax
    3a4c:	e8 8f d7 ff ff       	call   11e0 <perror@plt>
    3a51:	bf 01 00 00 00       	mov    edi,0x1
    3a56:	e8 c5 d7 ff ff       	call   1220 <exit@plt>
    3a5b:	48 8b 45 f8          	mov    rax,QWORD PTR [rbp-0x8]
    3a5f:	4c 8b 40 30          	mov    r8,QWORD PTR [rax+0x30]
    3a63:	48 8b 45 f8          	mov    rax,QWORD PTR [rbp-0x8]
    3a67:	8b 78 10             	mov    edi,DWORD PTR [rax+0x10]
    3a6a:	48 8b 45 f8          	mov    rax,QWORD PTR [rbp-0x8]
    3a6e:	8b 48 2c             	mov    ecx,DWORD PTR [rax+0x2c]
    3a71:	48 8b 45 f8          	mov    rax,QWORD PTR [rbp-0x8]
    3a75:	8b 50 28             	mov    edx,DWORD PTR [rax+0x28]
    3a78:	48 8b 45 f8          	mov    rax,QWORD PTR [rbp-0x8]
    3a7c:	48 8b 70 18          	mov    rsi,QWORD PTR [rax+0x18]
    3a80:	48 8b 45 f8          	mov    rax,QWORD PTR [rbp-0x8]
    3a84:	48 8b 40 20          	mov    rax,QWORD PTR [rax+0x20]
    3a88:	4d 89 c1             	mov    r9,r8
    3a8b:	41 89 f8             	mov    r8d,edi
    3a8e:	48 89 c7             	mov    rdi,rax
    3a91:	e8 da d5 ff ff       	call   1070 <mmap@plt>
    3a96:	48 8b 55 f8          	mov    rdx,QWORD PTR [rbp-0x8]
    3a9a:	48 89 42 38          	mov    QWORD PTR [rdx+0x38],rax
    3a9e:	48 8b 45 f8          	mov    rax,QWORD PTR [rbp-0x8]
    3aa2:	48 8b 40 38          	mov    rax,QWORD PTR [rax+0x38]
    3aa6:	48 83 f8 ff          	cmp    rax,0xffffffffffffffff
    3aaa:	75 19                	jne    3ac5 <__cxa_finalize@plt+0x27f5>
    3aac:	48 8d 05 61 08 00 00 	lea    rax,[rip+0x861]        # 4314 <__cxa_finalize@plt+0x3044>
    3ab3:	48 89 c7             	mov    rdi,rax
    3ab6:	e8 25 d7 ff ff       	call   11e0 <perror@plt>
    3abb:	bf 01 00 00 00       	mov    edi,0x1
    3ac0:	e8 5b d7 ff ff       	call   1220 <exit@plt>
    3ac5:	90                   	nop
    3ac6:	c9                   	leave  
    3ac7:	c3                   	ret    
    3ac8:	55                   	push   rbp
    3ac9:	48 89 e5             	mov    rbp,rsp
    3acc:	48 83 ec 10          	sub    rsp,0x10
    3ad0:	48 89 7d f8          	mov    QWORD PTR [rbp-0x8],rdi
    3ad4:	48 8b 45 f8          	mov    rax,QWORD PTR [rbp-0x8]
    3ad8:	48 8b 50 18          	mov    rdx,QWORD PTR [rax+0x18]
    3adc:	48 8b 45 f8          	mov    rax,QWORD PTR [rbp-0x8]
    3ae0:	48 8b 40 38          	mov    rax,QWORD PTR [rax+0x38]
    3ae4:	48 89 d6             	mov    rsi,rdx
    3ae7:	48 89 c7             	mov    rdi,rax
    3aea:	e8 c1 d6 ff ff       	call   11b0 <munmap@plt>
    3aef:	83 f8 ff             	cmp    eax,0xffffffff
    3af2:	75 19                	jne    3b0d <__cxa_finalize@plt+0x283d>
    3af4:	48 8d 05 1e 08 00 00 	lea    rax,[rip+0x81e]        # 4319 <__cxa_finalize@plt+0x3049>
    3afb:	48 89 c7             	mov    rdi,rax
    3afe:	e8 dd d6 ff ff       	call   11e0 <perror@plt>
    3b03:	bf 01 00 00 00       	mov    edi,0x1
    3b08:	e8 13 d7 ff ff       	call   1220 <exit@plt>
    3b0d:	48 8b 45 f8          	mov    rax,QWORD PTR [rbp-0x8]
    3b11:	8b 40 10             	mov    eax,DWORD PTR [rax+0x10]
    3b14:	89 c7                	mov    edi,eax
    3b16:	e8 d5 d5 ff ff       	call   10f0 <close@plt>
    3b1b:	83 f8 ff             	cmp    eax,0xffffffff
    3b1e:	75 19                	jne    3b39 <__cxa_finalize@plt+0x2869>
    3b20:	48 8d 05 f9 07 00 00 	lea    rax,[rip+0x7f9]        # 4320 <__cxa_finalize@plt+0x3050>
    3b27:	48 89 c7             	mov    rdi,rax
    3b2a:	e8 b1 d6 ff ff       	call   11e0 <perror@plt>
    3b2f:	bf 01 00 00 00       	mov    edi,0x1
    3b34:	e8 e7 d6 ff ff       	call   1220 <exit@plt>
    3b39:	48 8b 45 f8          	mov    rax,QWORD PTR [rbp-0x8]
    3b3d:	48 8b 00             	mov    rax,QWORD PTR [rax]
    3b40:	48 89 c7             	mov    rdi,rax
    3b43:	e8 18 d7 ff ff       	call   1260 <shm_unlink@plt>
    3b48:	83 f8 ff             	cmp    eax,0xffffffff
    3b4b:	75 19                	jne    3b66 <__cxa_finalize@plt+0x2896>
    3b4d:	48 8d 05 d2 07 00 00 	lea    rax,[rip+0x7d2]        # 4326 <__cxa_finalize@plt+0x3056>
    3b54:	48 89 c7             	mov    rdi,rax
    3b57:	e8 84 d6 ff ff       	call   11e0 <perror@plt>
    3b5c:	bf 01 00 00 00       	mov    edi,0x1
    3b61:	e8 ba d6 ff ff       	call   1220 <exit@plt>
    3b66:	90                   	nop
    3b67:	c9                   	leave  
    3b68:	c3                   	ret    

Disassembly of section .fini:

0000000000003b6c <.fini>:
    3b6c:	48 83 ec 08          	sub    rsp,0x8
    3b70:	48 83 c4 08          	add    rsp,0x8
    3b74:	c3                   	ret    
